---
triple:          'arm64-apple-darwin'
binary-path:     ircserv
relocations:
  - { offsetInCU: 0x3F, offset: 0x3F, size: 0x8, addend: 0x0, symName: _signalInterrupt, symObjAddr: 0x92B00, symBinAddr: 0x1000B27E0, symSize: 0x0 }
  - { offsetInCU: 0x57, offset: 0x57, size: 0x8, addend: 0x0, symName: _.str, symObjAddr: 0x1FD00, symBinAddr: 0x100089DE0, symSize: 0x0 }
  - { offsetInCU: 0x87, offset: 0x87, size: 0x8, addend: 0x0, symName: _.str.1, symObjAddr: 0x1FD40, symBinAddr: 0x100089E20, symSize: 0x0 }
  - { offsetInCU: 0xA4, offset: 0xA4, size: 0x8, addend: 0x0, symName: _.str.2, symObjAddr: 0x1FD80, symBinAddr: 0x100089E60, symSize: 0x0 }
  - { offsetInCU: 0xC1, offset: 0xC1, size: 0x8, addend: 0x0, symName: _.str.3, symObjAddr: 0x1FDC0, symBinAddr: 0x100089EA0, symSize: 0x0 }
  - { offsetInCU: 0xDE, offset: 0xDE, size: 0x8, addend: 0x0, symName: _.str.4, symObjAddr: 0x1FDE0, symBinAddr: 0x100089EC0, symSize: 0x0 }
  - { offsetInCU: 0xFB, offset: 0xFB, size: 0x8, addend: 0x0, symName: _.str.5, symObjAddr: 0x1FE20, symBinAddr: 0x100089F00, symSize: 0x0 }
  - { offsetInCU: 0x118, offset: 0x118, size: 0x8, addend: 0x0, symName: _.str.6, symObjAddr: 0x1FE40, symBinAddr: 0x100089F20, symSize: 0x0 }
  - { offsetInCU: 0x135, offset: 0x135, size: 0x8, addend: 0x0, symName: _.str.7, symObjAddr: 0x1FE60, symBinAddr: 0x100089F40, symSize: 0x0 }
  - { offsetInCU: 0x146, offset: 0x146, size: 0x8, addend: 0x0, symName: _.str.8, symObjAddr: 0x1FEA0, symBinAddr: 0x100089F80, symSize: 0x0 }
  - { offsetInCU: 0x163, offset: 0x163, size: 0x8, addend: 0x0, symName: _.str.9, symObjAddr: 0x1FEC0, symBinAddr: 0x100089FA0, symSize: 0x0 }
  - { offsetInCU: 0x180, offset: 0x180, size: 0x8, addend: 0x0, symName: _.str.10, symObjAddr: 0x1FF20, symBinAddr: 0x10008A000, symSize: 0x0 }
  - { offsetInCU: 0x19D, offset: 0x19D, size: 0x8, addend: 0x0, symName: _.str.11, symObjAddr: 0x1FF60, symBinAddr: 0x10008A040, symSize: 0x0 }
  - { offsetInCU: 0x1BA, offset: 0x1BA, size: 0x8, addend: 0x0, symName: _.str.12, symObjAddr: 0x1FFC0, symBinAddr: 0x10008A0A0, symSize: 0x0 }
  - { offsetInCU: 0x1CB, offset: 0x1CB, size: 0x8, addend: 0x0, symName: _.str.13, symObjAddr: 0x1FFE0, symBinAddr: 0x10008A0C0, symSize: 0x0 }
  - { offsetInCU: 0x1E8, offset: 0x1E8, size: 0x8, addend: 0x0, symName: _.str.14, symObjAddr: 0x20000, symBinAddr: 0x10008A0E0, symSize: 0x0 }
  - { offsetInCU: 0x205, offset: 0x205, size: 0x8, addend: 0x0, symName: _.str.15, symObjAddr: 0x20060, symBinAddr: 0x10008A140, symSize: 0x0 }
  - { offsetInCU: 0x222, offset: 0x222, size: 0x8, addend: 0x0, symName: _.str.16, symObjAddr: 0x200A0, symBinAddr: 0x10008A180, symSize: 0x0 }
  - { offsetInCU: 0x23F, offset: 0x23F, size: 0x8, addend: 0x0, symName: _.str.17, symObjAddr: 0x200C0, symBinAddr: 0x10008A1A0, symSize: 0x0 }
  - { offsetInCU: 0x25C, offset: 0x25C, size: 0x8, addend: 0x0, symName: _.str.18, symObjAddr: 0x20120, symBinAddr: 0x10008A200, symSize: 0x0 }
  - { offsetInCU: 0x26D, offset: 0x26D, size: 0x8, addend: 0x0, symName: _.str.19, symObjAddr: 0x20140, symBinAddr: 0x10008A220, symSize: 0x0 }
  - { offsetInCU: 0x28A, offset: 0x28A, size: 0x8, addend: 0x0, symName: _.str.20, symObjAddr: 0x20160, symBinAddr: 0x10008A240, symSize: 0x0 }
  - { offsetInCU: 0x29B, offset: 0x29B, size: 0x8, addend: 0x0, symName: _.str.21, symObjAddr: 0x20180, symBinAddr: 0x10008A260, symSize: 0x0 }
  - { offsetInCU: 0x2B8, offset: 0x2B8, size: 0x8, addend: 0x0, symName: _.str.22, symObjAddr: 0x201C0, symBinAddr: 0x10008A2A0, symSize: 0x0 }
  - { offsetInCU: 0x2D5, offset: 0x2D5, size: 0x8, addend: 0x0, symName: _.str.23, symObjAddr: 0x201E0, symBinAddr: 0x10008A2C0, symSize: 0x0 }
  - { offsetInCU: 0x2F2, offset: 0x2F2, size: 0x8, addend: 0x0, symName: _.str.24, symObjAddr: 0x20200, symBinAddr: 0x10008A2E0, symSize: 0x0 }
  - { offsetInCU: 0x303, offset: 0x303, size: 0x8, addend: 0x0, symName: _.str.25, symObjAddr: 0x20220, symBinAddr: 0x10008A300, symSize: 0x0 }
  - { offsetInCU: 0x320, offset: 0x320, size: 0x8, addend: 0x0, symName: _.str.26, symObjAddr: 0x20280, symBinAddr: 0x10008A360, symSize: 0x0 }
  - { offsetInCU: 0x331, offset: 0x331, size: 0x8, addend: 0x0, symName: _.str.27, symObjAddr: 0x202A0, symBinAddr: 0x10008A380, symSize: 0x0 }
  - { offsetInCU: 0x342, offset: 0x342, size: 0x8, addend: 0x0, symName: _.str.28, symObjAddr: 0x20300, symBinAddr: 0x10008A3E0, symSize: 0x0 }
  - { offsetInCU: 0x360, offset: 0x360, size: 0x8, addend: 0x0, symName: _.str.29, symObjAddr: 0x20340, symBinAddr: 0x10008A420, symSize: 0x0 }
  - { offsetInCU: 0x36F, offset: 0x36F, size: 0x8, addend: 0x0, symName: __ZN6Server9_instanceE, symObjAddr: 0x92B20, symBinAddr: 0x1000B2800, symSize: 0x0 }
  - { offsetInCU: 0xCE42, offset: 0xCE42, size: 0x8, addend: 0x0, symName: __ZNSt3__124__put_character_sequenceB8ue170006IcNS_11char_traitsIcEEEERNS_13basic_ostreamIT_T0_EES7_PKS4_m, symObjAddr: 0xC86C, symBinAddr: 0x100010BD4, symSize: 0x74C }
  - { offsetInCU: 0xEC45, offset: 0xEC45, size: 0x8, addend: 0x0, symName: __ZNSt3__1lsB8ue170006INS_11char_traitsIcEEEERNS_13basic_ostreamIcT_EES6_PKc, symObjAddr: 0x1308, symBinAddr: 0x100005670, symSize: 0x48 }
  - { offsetInCU: 0xEC8B, offset: 0xEC8B, size: 0x8, addend: 0x0, symName: __ZNSt3__14endlB8ue170006IcNS_11char_traitsIcEEEERNS_13basic_ostreamIT_T0_EES7_, symObjAddr: 0x137C, symBinAddr: 0x1000056E4, symSize: 0xD4 }
  - { offsetInCU: 0xECCB, offset: 0xECCB, size: 0x8, addend: 0x0, symName: __ZNSt3__1neB8ue170006IP6pollfdEEbRKNS_11__wrap_iterIT_EES7_, symObjAddr: 0x34A0, symBinAddr: 0x100007808, symSize: 0x34 }
  - { offsetInCU: 0xED0E, offset: 0xED0E, size: 0x8, addend: 0x0, symName: __ZNSt3__1neB8ue170006IPNS_12basic_stringIcNS_11char_traitsIcEENS_9allocatorIcEEEEEEbRKNS_11__wrap_iterIT_EESC_, symObjAddr: 0x5780, symBinAddr: 0x100009AE8, symSize: 0x34 }
  - { offsetInCU: 0xED51, offset: 0xED51, size: 0x8, addend: 0x0, symName: __ZNSt3__1lsB8ue170006IcNS_11char_traitsIcEENS_9allocatorIcEEEERNS_13basic_ostreamIT_T0_EES9_RKNS_12basic_stringIS6_S7_T1_EE, symObjAddr: 0x5A20, symBinAddr: 0x100009D88, symSize: 0x4C }
  - { offsetInCU: 0xEDA9, offset: 0xEDA9, size: 0x8, addend: 0x0, symName: __ZNSt3__1neB8ue170006IcNS_11char_traitsIcEENS_9allocatorIcEEEEbRKNS_12basic_stringIT_T0_T1_EEPKS6_, symObjAddr: 0x65D4, symBinAddr: 0x10000A93C, symSize: 0x34 }
  - { offsetInCU: 0xEE01, offset: 0xEE01, size: 0x8, addend: 0x0, symName: __ZNSt3__1neB8ue170006ERKNS_14__map_iteratorINS_15__tree_iteratorINS_12__value_typeIiP6ClientEEPNS_11__tree_nodeIS5_PvEElEEEESD_, symObjAddr: 0x6C84, symBinAddr: 0x10000AFEC, symSize: 0x30 }
  - { offsetInCU: 0xEE5A, offset: 0xEE5A, size: 0x8, addend: 0x0, symName: __ZNSt3__130__libcpp_is_constant_evaluatedB8ue170006Ev, symObjAddr: 0x837C, symBinAddr: 0x10000C6E4, symSize: 0xC }
  - { offsetInCU: 0xEE77, offset: 0xEE77, size: 0x8, addend: 0x0, symName: __ZNSt3__117__libcpp_allocateB8ue170006Emm, symObjAddr: 0x8784, symBinAddr: 0x10000CAEC, symSize: 0x28 }
  - { offsetInCU: 0xEEB4, offset: 0xEEB4, size: 0x8, addend: 0x0, symName: __ZNSt3__121__libcpp_operator_newB8ue170006IJmEEEPvDpT_, symObjAddr: 0x87C0, symBinAddr: 0x10000CB28, symSize: 0x24 }
  - { offsetInCU: 0xEFAD, offset: 0xEFAD, size: 0x8, addend: 0x0, symName: __ZNSt3__119__libcpp_deallocateB8ue170006EPvmm, symObjAddr: 0x9FFC, symBinAddr: 0x10000E364, symSize: 0x30 }
  - { offsetInCU: 0xEFF5, offset: 0xEFF5, size: 0x8, addend: 0x0, symName: __ZNSt3__127__do_deallocate_handle_sizeB8ue170006IJEEEvPvmDpT_, symObjAddr: 0xA02C, symBinAddr: 0x10000E394, symSize: 0x28 }
  - { offsetInCU: 0xF033, offset: 0xF033, size: 0x8, addend: 0x0, symName: __ZNSt3__124__libcpp_operator_deleteB8ue170006IJPvEEEvDpT_, symObjAddr: 0xA054, symBinAddr: 0x10000E3BC, symSize: 0x24 }
  - { offsetInCU: 0xF068, offset: 0xF068, size: 0x8, addend: 0x0, symName: __ZNSt3__112__to_addressB8ue170006I6pollfdEEPT_S3_, symObjAddr: 0xB2DC, symBinAddr: 0x10000F644, symSize: 0x14 }
  - { offsetInCU: 0xF09D, offset: 0xF09D, size: 0x8, addend: 0x0, symName: __ZNSt3__112__to_addressB8ue170006IKcEEPT_S3_, symObjAddr: 0xB508, symBinAddr: 0x10000F870, symSize: 0x14 }
  - { offsetInCU: 0xF105, offset: 0xF105, size: 0x8, addend: 0x0, symName: __ZNSt3__112__to_addressB8ue170006INS_12basic_stringIcNS_11char_traitsIcEENS_9allocatorIcEEEEEEPT_S8_, symObjAddr: 0xC3C8, symBinAddr: 0x100010730, symSize: 0x14 }
  - { offsetInCU: 0xF13A, offset: 0xF13A, size: 0x8, addend: 0x0, symName: __ZNSt3__118__constexpr_strlenB8ue170006EPKc, symObjAddr: 0xC848, symBinAddr: 0x100010BB0, symSize: 0x24 }
  - { offsetInCU: 0xF166, offset: 0xF166, size: 0x8, addend: 0x0, symName: __ZNSt3__116__pad_and_outputB8ue170006IcNS_11char_traitsIcEEEENS_19ostreambuf_iteratorIT_T0_EES6_PKS4_S8_S8_RNS_8ios_baseES4_, symObjAddr: 0xD040, symBinAddr: 0x1000113A8, symSize: 0x774 }
  - { offsetInCU: 0xF243, offset: 0xF243, size: 0x8, addend: 0x0, symName: __ZNSt3__19use_facetB8ue170006INS_5ctypeIcEEEERKT_RKNS_6localeE, symObjAddr: 0xE358, symBinAddr: 0x1000126C0, symSize: 0x2C }
  - { offsetInCU: 0xF710, offset: 0xF710, size: 0x8, addend: 0x0, symName: __ZNSt3__13maxB8ue170006ImEERKT_S3_S3_, symObjAddr: 0x10018, symBinAddr: 0x100014380, symSize: 0x2C }
  - { offsetInCU: 0xF753, offset: 0xF753, size: 0x8, addend: 0x0, symName: __ZNSt3__13minB8ue170006ImEERKT_S3_S3_, symObjAddr: 0x10044, symBinAddr: 0x1000143AC, symSize: 0x2C }
  - { offsetInCU: 0xF997, offset: 0xF997, size: 0x8, addend: 0x0, symName: __ZNSt3__13minB8ue170006ImNS_6__lessIvvEEEERKT_S5_S5_T0_, symObjAddr: 0x100D0, symBinAddr: 0x100014438, symSize: 0x1E8 }
  - { offsetInCU: 0xFA3C, offset: 0xFA3C, size: 0x8, addend: 0x0, symName: __ZNSt3__120__throw_length_errorB8ue170006EPKc, symObjAddr: 0x103C8, symBinAddr: 0x100014730, symSize: 0x68 }
  - { offsetInCU: 0xFA66, offset: 0xFA66, size: 0x8, addend: 0x0, symName: __ZNSt3__13maxB8ue170006ImNS_6__lessIvvEEEERKT_S5_S5_T0_, symObjAddr: 0x104F0, symBinAddr: 0x100014858, symSize: 0x1E8 }
  - { offsetInCU: 0xFAC6, offset: 0xFAC6, size: 0x8, addend: 0x0, symName: __ZNSt3__119__allocate_at_leastB8ue170006INS_9allocatorI6pollfdEEEENS_19__allocation_resultINS_16allocator_traitsIT_E7pointerEEERS6_m, symObjAddr: 0x10C34, symBinAddr: 0x100014F9C, symSize: 0x28C }
  - { offsetInCU: 0xFB0B, offset: 0xFB0B, size: 0x8, addend: 0x0, symName: __ZNSt3__142__uninitialized_allocator_move_if_noexceptB8ue170006INS_9allocatorI6pollfdEENS_16reverse_iteratorIPS2_EES6_S2_vEET1_RT_T0_SA_S7_, symObjAddr: 0x110FC, symBinAddr: 0x100015464, symSize: 0x550 }
  - { offsetInCU: 0xFB95, offset: 0xFB95, size: 0x8, addend: 0x0, symName: __ZNSt3__14swapB8ue170006IP6pollfdEEvRT_S4_, symObjAddr: 0x116E4, symBinAddr: 0x100015A4C, symSize: 0x134 }
  - { offsetInCU: 0xFBE6, offset: 0xFBE6, size: 0x8, addend: 0x0, symName: __ZNSt3__1neB8ue170006IP6pollfdS2_EEbRKNS_16reverse_iteratorIT_EERKNS3_IT0_EE, symObjAddr: 0x118EC, symBinAddr: 0x100015C54, symSize: 0x48 }
  - { offsetInCU: 0xFC57, offset: 0xFC57, size: 0x8, addend: 0x0, symName: __ZNSt3__114__construct_atB8ue170006I6pollfdJS1_EPS1_EEPT_S4_DpOT0_, symObjAddr: 0x11934, symBinAddr: 0x100015C9C, symSize: 0x40 }
  - { offsetInCU: 0xFCC7, offset: 0xFCC7, size: 0x8, addend: 0x0, symName: __ZNSt3__112__to_addressB8ue170006INS_16reverse_iteratorIP6pollfdEEvEEu7__decayIDTclsr19__to_address_helperIT_EE6__callclsr3stdE7declvalIRKS5_EEEEES7_, symObjAddr: 0x11974, symBinAddr: 0x100015CDC, symSize: 0x24 }
  - { offsetInCU: 0xFCFD, offset: 0xFCFD, size: 0x8, addend: 0x0, symName: __ZNSt3__14moveB8ue170006INS_16reverse_iteratorIP6pollfdEES4_EET0_T_S6_S5_, symObjAddr: 0x11A78, symBinAddr: 0x100015DE0, symSize: 0x4B0 }
  - { offsetInCU: 0xFD8D, offset: 0xFD8D, size: 0x8, addend: 0x0, symName: __ZNSt3__16__moveB8ue170006INS_17_ClassicAlgPolicyENS_16reverse_iteratorIP6pollfdEES5_S5_EENS_4pairIT0_T2_EES7_T1_S8_, symObjAddr: 0x11FA4, symBinAddr: 0x10001630C, symSize: 0x424 }
  - { offsetInCU: 0xFE05, offset: 0xFE05, size: 0x8, addend: 0x0, symName: __ZNSt3__123__dispatch_copy_or_moveB8ue170006INS_17_ClassicAlgPolicyENS_11__move_loopIS1_EENS_14__move_trivialENS_16reverse_iteratorIP6pollfdEES8_S8_EENS_4pairIT2_T4_EESA_T3_SB_, symObjAddr: 0x123C8, symBinAddr: 0x100016730, symSize: 0x424 }
  - { offsetInCU: 0xFE8F, offset: 0xFE8F, size: 0x8, addend: 0x0, symName: __ZNSt3__121__unwrap_and_dispatchB8ue170006INS_10__overloadINS_11__move_loopINS_17_ClassicAlgPolicyEEENS_14__move_trivialEEENS_16reverse_iteratorIP6pollfdEESA_SA_Li0EEENS_4pairIT0_T2_EESC_T1_SD_, symObjAddr: 0x127EC, symBinAddr: 0x100016B54, symSize: 0x880 }
  - { offsetInCU: 0xFF33, offset: 0xFF33, size: 0x8, addend: 0x0, symName: __ZNSt3__114__unwrap_rangeB8ue170006INS_16reverse_iteratorIP6pollfdEES4_EENS_4pairIT0_S6_EET_S8_, symObjAddr: 0x1306C, symBinAddr: 0x1000173D4, symSize: 0x448 }
  - { offsetInCU: 0x1008F, offset: 0x1008F, size: 0x8, addend: 0x0, symName: __ZNSt3__113__unwrap_iterB8ue170006INS_16reverse_iteratorIP6pollfdEENS_18__unwrap_iter_implIS4_Lb0EEELi0EEEDTclsrT0_8__unwrapclsr3stdE7declvalIT_EEEES8_, symObjAddr: 0x137F8, symBinAddr: 0x100017B60, symSize: 0x2EC }
  - { offsetInCU: 0x100D7, offset: 0x100D7, size: 0x8, addend: 0x0, symName: __ZNSt3__19make_pairB8ue170006INS_16reverse_iteratorIP6pollfdEES4_EENS_4pairINS_18__unwrap_ref_decayIT_E4typeENS6_IT0_E4typeEEEOS7_OSA_, symObjAddr: 0x13AE4, symBinAddr: 0x100017E4C, symSize: 0x38 }
  - { offsetInCU: 0x10126, offset: 0x10126, size: 0x8, addend: 0x0, symName: __ZNSt3__114__rewrap_rangeB8ue170006INS_16reverse_iteratorIP6pollfdEES4_EET_S5_T0_, symObjAddr: 0x13B1C, symBinAddr: 0x100017E84, symSize: 0x3D4 }
  - { offsetInCU: 0x1017A, offset: 0x1017A, size: 0x8, addend: 0x0, symName: __ZNSt3__113__rewrap_iterB8ue170006INS_16reverse_iteratorIP6pollfdEES4_NS_18__unwrap_iter_implIS4_Lb0EEEEET_S7_T0_, symObjAddr: 0x13EF0, symBinAddr: 0x100018258, symSize: 0x3FC }
  - { offsetInCU: 0x10289, offset: 0x10289, size: 0x8, addend: 0x0, symName: __ZNSt3__1eqB8ue170006IP6pollfdEEbRKNS_11__wrap_iterIT_EES7_, symObjAddr: 0x14FFC, symBinAddr: 0x100019364, symSize: 0x48 }
  - { offsetInCU: 0x102EA, offset: 0x102EA, size: 0x8, addend: 0x0, symName: __ZNSt3__127__tree_balance_after_insertB8ue170006IPNS_16__tree_node_baseIPvEEEEvT_S5_, symObjAddr: 0x168A8, symBinAddr: 0x10001AC10, symSize: 0x994 }
  - { offsetInCU: 0x10357, offset: 0x10357, size: 0x8, addend: 0x0, symName: __ZNSt3__120__tree_is_left_childB8ue170006IPNS_16__tree_node_baseIPvEEEEbT_, symObjAddr: 0x172C8, symBinAddr: 0x10001B630, symSize: 0xB8 }
  - { offsetInCU: 0x1038C, offset: 0x1038C, size: 0x8, addend: 0x0, symName: __ZNSt3__118__tree_left_rotateB8ue170006IPNS_16__tree_node_baseIPvEEEEvT_, symObjAddr: 0x17380, symBinAddr: 0x10001B6E8, symSize: 0x388 }
  - { offsetInCU: 0x103CE, offset: 0x103CE, size: 0x8, addend: 0x0, symName: __ZNSt3__119__tree_right_rotateB8ue170006IPNS_16__tree_node_baseIPvEEEEvT_, symObjAddr: 0x17708, symBinAddr: 0x10001BA70, symSize: 0x354 }
  - { offsetInCU: 0x10410, offset: 0x10410, size: 0x8, addend: 0x0, symName: __ZNSt3__1eqB8ue170006IPNS_12basic_stringIcNS_11char_traitsIcEENS_9allocatorIcEEEEEEbRKNS_11__wrap_iterIT_EESC_, symObjAddr: 0x18160, symBinAddr: 0x10001C4C8, symSize: 0x48 }
  - { offsetInCU: 0x10486, offset: 0x10486, size: 0x8, addend: 0x0, symName: __ZNSt3__1eqB8ue170006IcNS_11char_traitsIcEENS_9allocatorIcEEEEbRKNS_12basic_stringIT_T0_T1_EEPKS6_, symObjAddr: 0x1875C, symBinAddr: 0x10001CAC4, symSize: 0xDC }
  - { offsetInCU: 0x104ED, offset: 0x104ED, size: 0x8, addend: 0x0, symName: __ZNSt3__1neB8ue170006ERKNS_15__tree_iteratorINS_12__value_typeIiP6ClientEEPNS_11__tree_nodeIS4_PvEElEESB_, symObjAddr: 0x19630, symBinAddr: 0x10001D998, symSize: 0x34 }
  - { offsetInCU: 0x1052A, offset: 0x1052A, size: 0x8, addend: 0x0, symName: __ZNSt3__1eqB8ue170006ERKNS_15__tree_iteratorINS_12__value_typeIiP6ClientEEPNS_11__tree_nodeIS4_PvEElEESB_, symObjAddr: 0x19934, symBinAddr: 0x10001DC9C, symSize: 0xB8 }
  - { offsetInCU: 0x105CD, offset: 0x105CD, size: 0x8, addend: 0x0, symName: __ZNSt3__113__tree_removeB8ue170006IPNS_16__tree_node_baseIPvEEEEvT_S5_, symObjAddr: 0x1A6EC, symBinAddr: 0x10001EA54, symSize: 0x1ED4 }
  - { offsetInCU: 0x1064B, offset: 0x1064B, size: 0x8, addend: 0x0, symName: __ZNSt3__116__tree_next_iterB8ue170006IPNS_15__tree_end_nodeIPNS_16__tree_node_baseIPvEEEES5_EET_T0_, symObjAddr: 0x1C630, symBinAddr: 0x100020998, symSize: 0x134 }
  - { offsetInCU: 0x10689, offset: 0x10689, size: 0x8, addend: 0x0, symName: __ZNSt3__110__tree_minB8ue170006IPNS_16__tree_node_baseIPvEEEET_S5_, symObjAddr: 0x1C764, symBinAddr: 0x100020ACC, symSize: 0xC4 }
  - { offsetInCU: 0x106BE, offset: 0x106BE, size: 0x8, addend: 0x0, symName: __ZNSt3__111__tree_nextB8ue170006IPNS_16__tree_node_baseIPvEEEET_S5_, symObjAddr: 0x1C828, symBinAddr: 0x100020B90, symSize: 0xFC }
  - { offsetInCU: 0x106F3, offset: 0x106F3, size: 0x8, addend: 0x0, symName: __ZNSt3__1miB8ue170006IPK6pollfdS3_EENS_11__wrap_iterIT_E15difference_typeERKS6_RKNS4_IT0_EE, symObjAddr: 0x1CB94, symBinAddr: 0x100020EFC, symSize: 0x48 }
  - { offsetInCU: 0x1073F, offset: 0x1073F, size: 0x8, addend: 0x0, symName: __ZNSt3__14moveB8ue170006IP6pollfdS2_EET0_T_S4_S3_, symObjAddr: 0x1CE5C, symBinAddr: 0x1000211C4, symSize: 0x254 }
  - { offsetInCU: 0x1079C, offset: 0x1079C, size: 0x8, addend: 0x0, symName: __ZNSt3__16__moveB8ue170006INS_17_ClassicAlgPolicyEP6pollfdS3_S3_EENS_4pairIT0_T2_EES5_T1_S6_, symObjAddr: 0x1D618, symBinAddr: 0x100021980, symSize: 0x22C }
  - { offsetInCU: 0x1080B, offset: 0x1080B, size: 0x8, addend: 0x0, symName: __ZNSt3__123__dispatch_copy_or_moveB8ue170006INS_17_ClassicAlgPolicyENS_11__move_loopIS1_EENS_14__move_trivialEP6pollfdS6_S6_EENS_4pairIT2_T4_EES8_T3_S9_, symObjAddr: 0x1D844, symBinAddr: 0x100021BAC, symSize: 0x22C }
  - { offsetInCU: 0x1088C, offset: 0x1088C, size: 0x8, addend: 0x0, symName: __ZNSt3__121__unwrap_and_dispatchB8ue170006INS_10__overloadINS_11__move_loopINS_17_ClassicAlgPolicyEEENS_14__move_trivialEEEP6pollfdS8_S8_Li0EEENS_4pairIT0_T2_EESA_T1_SB_, symObjAddr: 0x1DA70, symBinAddr: 0x100021DD8, symSize: 0x5A4 }
  - { offsetInCU: 0x10925, offset: 0x10925, size: 0x8, addend: 0x0, symName: __ZNSt3__114__unwrap_rangeB8ue170006IP6pollfdS2_EENS_4pairIT0_S4_EET_S6_, symObjAddr: 0x1E014, symBinAddr: 0x10002237C, symSize: 0x350 }
  - { offsetInCU: 0x10A66, offset: 0x10A66, size: 0x8, addend: 0x0, symName: __ZNSt3__113__unwrap_iterB8ue170006IP6pollfdNS_18__unwrap_iter_implIS2_Lb1EEELi0EEEDTclsrT0_8__unwrapclsr3stdE7declvalIT_EEEES6_, symObjAddr: 0x1E594, symBinAddr: 0x1000228FC, symSize: 0x24 }
  - { offsetInCU: 0x10AAA, offset: 0x10AAA, size: 0x8, addend: 0x0, symName: __ZNSt3__19make_pairB8ue170006IP6pollfdS2_EENS_4pairINS_18__unwrap_ref_decayIT_E4typeENS4_IT0_E4typeEEEOS5_OS8_, symObjAddr: 0x1E5B8, symBinAddr: 0x100022920, symSize: 0x20C }
  - { offsetInCU: 0x10AFB, offset: 0x10AFB, size: 0x8, addend: 0x0, symName: __ZNSt3__114__rewrap_rangeB8ue170006IP6pollfdS2_EET_S3_T0_, symObjAddr: 0x1E7C4, symBinAddr: 0x100022B2C, symSize: 0x2C }
  - { offsetInCU: 0x10B47, offset: 0x10B47, size: 0x8, addend: 0x0, symName: __ZNSt3__113__rewrap_iterB8ue170006IP6pollfdS2_NS_18__unwrap_iter_implIS2_Lb1EEEEET_S5_T0_, symObjAddr: 0x1E7F0, symBinAddr: 0x100022B58, symSize: 0x5C }
  - { offsetInCU: 0x10B9C, offset: 0x10B9C, size: 0x8, addend: 0x0, symName: __ZNSt3__119__copy_trivial_implB8ue170006I6pollfdS1_EENS_4pairIPT_PT0_EES4_S4_S6_, symObjAddr: 0x1E84C, symBinAddr: 0x100022BB4, symSize: 0x3B4 }
  - { offsetInCU: 0x10C0B, offset: 0x10C0B, size: 0x8, addend: 0x0, symName: __ZNSt3__119__constexpr_memmoveB8ue170006I6pollfdS1_Li0EEEPT_S3_PT0_NS_15__element_countE, symObjAddr: 0x1EC00, symBinAddr: 0x100022F68, symSize: 0xB0 }
  - { offsetInCU: 0x10C79, offset: 0x10C79, size: 0x8, addend: 0x0, symName: __ZNSt3__19make_pairB8ue170006IRP6pollfdS2_EENS_4pairINS_18__unwrap_ref_decayIT_E4typeENS5_IT0_E4typeEEEOS6_OS9_, symObjAddr: 0x1ECB0, symBinAddr: 0x100023018, symSize: 0x20C }
  - { offsetInCU: 0x10EF2, offset: 0x10EF2, size: 0x8, addend: 0x0, symName: __ZSt28__throw_bad_array_new_lengthB8ue170006v, symObjAddr: 0x874C, symBinAddr: 0x10000CAB4, symSize: 0x38 }
  - { offsetInCU: 0x124EF, offset: 0x124EF, size: 0x8, addend: 0x0, symName: _.str.30, symObjAddr: 0x20380, symBinAddr: 0x10008A460, symSize: 0x0 }
  - { offsetInCU: 0x127C2, offset: 0x127C2, size: 0x8, addend: 0x0, symName: __ZNSt3__16vectorI6pollfdNS_9allocatorIS1_EEE26__swap_out_circular_bufferERNS_14__split_bufferIS1_RS3_EE, symObjAddr: 0xF738, symBinAddr: 0x100013AA0, symSize: 0x56C }
  - { offsetInCU: 0x14B22, offset: 0x14B22, size: 0x8, addend: 0x0, symName: __ZN6Server11getInstanceEv, symObjAddr: 0x0, symBinAddr: 0x100004368, symSize: 0x80 }
  - { offsetInCU: 0x14B38, offset: 0x14B38, size: 0x8, addend: 0x0, symName: __ZN6ServerC1Ev, symObjAddr: 0x80, symBinAddr: 0x1000043E8, symSize: 0x2C }
  - { offsetInCU: 0x14B62, offset: 0x14B62, size: 0x8, addend: 0x0, symName: __ZN6Server10initServerEv, symObjAddr: 0xAC, symBinAddr: 0x100004414, symSize: 0x1198 }
  - { offsetInCU: 0x14BB6, offset: 0x14BB6, size: 0x8, addend: 0x0, symName: __ZNSt3__112basic_stringIcNS_11char_traitsIcEENS_9allocatorIcEEEC1B8ue170006ILi0EEEPKc, symObjAddr: 0x1244, symBinAddr: 0x1000055AC, symSize: 0x34 }
  - { offsetInCU: 0x14BF5, offset: 0x14BF5, size: 0x8, addend: 0x0, symName: __ZN12IrcExceptionC1ERKNSt3__112basic_stringIcNS0_11char_traitsIcEENS0_9allocatorIcEEEE, symObjAddr: 0x1278, symBinAddr: 0x1000055E0, symSize: 0x34 }
  - { offsetInCU: 0x14C2D, offset: 0x14C2D, size: 0x8, addend: 0x0, symName: __ZN12IrcExceptionD1Ev, symObjAddr: 0x12AC, symBinAddr: 0x100005614, symSize: 0x2C }
  - { offsetInCU: 0x14C57, offset: 0x14C57, size: 0x8, addend: 0x0, symName: __ZL12_OSSwapInt16t, symObjAddr: 0x12E4, symBinAddr: 0x10000564C, symSize: 0x24 }
  - { offsetInCU: 0x14C84, offset: 0x14C84, size: 0x8, addend: 0x0, symName: __ZNSt3__113basic_ostreamIcNS_11char_traitsIcEEElsB8ue170006EPFRS3_S4_E, symObjAddr: 0x1350, symBinAddr: 0x1000056B8, symSize: 0x2C }
  - { offsetInCU: 0x14CB8, offset: 0x14CB8, size: 0x8, addend: 0x0, symName: __ZNSt3__16vectorI6pollfdNS_9allocatorIS1_EEE9push_backB8ue170006ERKS1_, symObjAddr: 0x1450, symBinAddr: 0x1000057B8, symSize: 0xE0 }
  - { offsetInCU: 0x14CEF, offset: 0x14CEF, size: 0x8, addend: 0x0, symName: __ZN6Server13signalHandlerEi, symObjAddr: 0x1530, symBinAddr: 0x100005898, symSize: 0x5C }
  - { offsetInCU: 0x14D14, offset: 0x14D14, size: 0x8, addend: 0x0, symName: __ZN6Server9runServerEv, symObjAddr: 0x158C, symBinAddr: 0x1000058F4, symSize: 0xB00 }
  - { offsetInCU: 0x14D55, offset: 0x14D55, size: 0x8, addend: 0x0, symName: __ZNSt3__16vectorI6pollfdNS_9allocatorIS1_EEEixB8ue170006Em, symObjAddr: 0x208C, symBinAddr: 0x1000063F4, symSize: 0x6C }
  - { offsetInCU: 0x14D8C, offset: 0x14D8C, size: 0x8, addend: 0x0, symName: __ZNKSt3__16vectorI6pollfdNS_9allocatorIS1_EEE4sizeB8ue170006Ev, symObjAddr: 0x20F8, symBinAddr: 0x100006460, symSize: 0xB0 }
  - { offsetInCU: 0x14DB2, offset: 0x14DB2, size: 0x8, addend: 0x0, symName: __ZN6Server13cleanupServerEv, symObjAddr: 0x21A8, symBinAddr: 0x100006510, symSize: 0x650 }
  - { offsetInCU: 0x14E17, offset: 0x14E17, size: 0x8, addend: 0x0, symName: __ZN6Server19handleNewConnectionEv, symObjAddr: 0x27F8, symBinAddr: 0x100006B60, symSize: 0xA40 }
  - { offsetInCU: 0x14EA7, offset: 0x14EA7, size: 0x8, addend: 0x0, symName: __ZNSt3__16vectorI6pollfdNS_9allocatorIS1_EEE5beginB8ue170006Ev, symObjAddr: 0x3238, symBinAddr: 0x1000075A0, symSize: 0x268 }
  - { offsetInCU: 0x14ED0, offset: 0x14ED0, size: 0x8, addend: 0x0, symName: __ZNSt3__16vectorI6pollfdNS_9allocatorIS1_EEE3endB8ue170006Ev, symObjAddr: 0x34D4, symBinAddr: 0x10000783C, symSize: 0x26C }
  - { offsetInCU: 0x14EF9, offset: 0x14EF9, size: 0x8, addend: 0x0, symName: __ZNKSt3__111__wrap_iterIP6pollfdEptB8ue170006Ev, symObjAddr: 0x3740, symBinAddr: 0x100007AA8, symSize: 0x64 }
  - { offsetInCU: 0x14F1F, offset: 0x14F1F, size: 0x8, addend: 0x0, symName: __ZN6Server19handleClientMessageEi, symObjAddr: 0x37A4, symBinAddr: 0x100007B0C, symSize: 0xB6C }
  - { offsetInCU: 0x14FA9, offset: 0x14FA9, size: 0x8, addend: 0x0, symName: __ZN6Server12sendToClientEi, symObjAddr: 0x4310, symBinAddr: 0x100008678, symSize: 0x5BC }
  - { offsetInCU: 0x15005, offset: 0x15005, size: 0x8, addend: 0x0, symName: __ZN6Server11closeClientEi, symObjAddr: 0x48CC, symBinAddr: 0x100008C34, symSize: 0x870 }
  - { offsetInCU: 0x15075, offset: 0x15075, size: 0x8, addend: 0x0, symName: __ZNSt3__111__wrap_iterIP6pollfdEppB8ue170006Ev, symObjAddr: 0x513C, symBinAddr: 0x1000094A4, symSize: 0x68 }
  - { offsetInCU: 0x1509B, offset: 0x1509B, size: 0x8, addend: 0x0, symName: __ZNSt3__13mapIiP6ClientNS_4lessIiEENS_9allocatorINS_4pairIKiS2_EEEEEixERS7_, symObjAddr: 0x51A4, symBinAddr: 0x10000950C, symSize: 0x374 }
  - { offsetInCU: 0x15120, offset: 0x15120, size: 0x8, addend: 0x0, symName: __ZNSt3__16vectorINS_12basic_stringIcNS_11char_traitsIcEENS_9allocatorIcEEEENS4_IS6_EEE5beginB8ue170006Ev, symObjAddr: 0x5518, symBinAddr: 0x100009880, symSize: 0x268 }
  - { offsetInCU: 0x15149, offset: 0x15149, size: 0x8, addend: 0x0, symName: __ZNSt3__16vectorINS_12basic_stringIcNS_11char_traitsIcEENS_9allocatorIcEEEENS4_IS6_EEE3endB8ue170006Ev, symObjAddr: 0x57B4, symBinAddr: 0x100009B1C, symSize: 0x26C }
  - { offsetInCU: 0x15172, offset: 0x15172, size: 0x8, addend: 0x0, symName: __ZNKSt3__111__wrap_iterIPNS_12basic_stringIcNS_11char_traitsIcEENS_9allocatorIcEEEEEdeB8ue170006Ev, symObjAddr: 0x5A6C, symBinAddr: 0x100009DD4, symSize: 0x60 }
  - { offsetInCU: 0x15198, offset: 0x15198, size: 0x8, addend: 0x0, symName: __ZNKSt3__111__wrap_iterIPNS_12basic_stringIcNS_11char_traitsIcEENS_9allocatorIcEEEEEptB8ue170006Ev, symObjAddr: 0x5ACC, symBinAddr: 0x100009E34, symSize: 0x64 }
  - { offsetInCU: 0x151BE, offset: 0x151BE, size: 0x8, addend: 0x0, symName: __ZNKSt3__112basic_stringIcNS_11char_traitsIcEENS_9allocatorIcEEE5c_strB8ue170006Ev, symObjAddr: 0x5B30, symBinAddr: 0x100009E98, symSize: 0x24 }
  - { offsetInCU: 0x151E4, offset: 0x151E4, size: 0x8, addend: 0x0, symName: __ZNKSt3__112basic_stringIcNS_11char_traitsIcEENS_9allocatorIcEEE4sizeB8ue170006Ev, symObjAddr: 0x5B54, symBinAddr: 0x100009EBC, symSize: 0x54 }
  - { offsetInCU: 0x1520A, offset: 0x1520A, size: 0x8, addend: 0x0, symName: __ZNSt3__111__wrap_iterIPNS_12basic_stringIcNS_11char_traitsIcEENS_9allocatorIcEEEEEppB8ue170006Ev, symObjAddr: 0x5BA8, symBinAddr: 0x100009F10, symSize: 0x68 }
  - { offsetInCU: 0x15230, offset: 0x15230, size: 0x8, addend: 0x0, symName: __ZNSt3__16vectorINS_12basic_stringIcNS_11char_traitsIcEENS_9allocatorIcEEEENS4_IS6_EEE5clearB8ue170006Ev, symObjAddr: 0x5C10, symBinAddr: 0x100009F78, symSize: 0x44 }
  - { offsetInCU: 0x15265, offset: 0x15265, size: 0x8, addend: 0x0, symName: __ZN6Server7ft_recvEi, symObjAddr: 0x5C54, symBinAddr: 0x100009FBC, symSize: 0xC8 }
  - { offsetInCU: 0x152A9, offset: 0x152A9, size: 0x8, addend: 0x0, symName: __ZNSt3__112basic_stringIcNS_11char_traitsIcEENS_9allocatorIcEEE5clearB8ue170006Ev, symObjAddr: 0x5D1C, symBinAddr: 0x10000A084, symSize: 0x30C }
  - { offsetInCU: 0x152D2, offset: 0x152D2, size: 0x8, addend: 0x0, symName: __ZNSt3__112basic_stringIcNS_11char_traitsIcEENS_9allocatorIcEEE6resizeB8ue170006Em, symObjAddr: 0x6028, symBinAddr: 0x10000A390, symSize: 0x30 }
  - { offsetInCU: 0x15307, offset: 0x15307, size: 0x8, addend: 0x0, symName: __ZNSt3__112basic_stringIcNS_11char_traitsIcEENS_9allocatorIcEEEixB8ue170006Em, symObjAddr: 0x6058, symBinAddr: 0x10000A3C0, symSize: 0x30 }
  - { offsetInCU: 0x1533C, offset: 0x1533C, size: 0x8, addend: 0x0, symName: __ZN6Server25handleClientDisconnectionEii, symObjAddr: 0x6088, symBinAddr: 0x10000A3F0, symSize: 0x4F0 }
  - { offsetInCU: 0x153A4, offset: 0x153A4, size: 0x8, addend: 0x0, symName: __ZNSt3__16vectorINS_12basic_stringIcNS_11char_traitsIcEENS_9allocatorIcEEEENS4_IS6_EEEC1B8ue170006Ev, symObjAddr: 0x6578, symBinAddr: 0x10000A8E0, symSize: 0x2C }
  - { offsetInCU: 0x153CE, offset: 0x153CE, size: 0x8, addend: 0x0, symName: __ZNKSt3__112basic_stringIcNS_11char_traitsIcEENS_9allocatorIcEEE5emptyB8ue170006Ev, symObjAddr: 0x65A4, symBinAddr: 0x10000A90C, symSize: 0x30 }
  - { offsetInCU: 0x153F4, offset: 0x153F4, size: 0x8, addend: 0x0, symName: __ZNKSt3__112basic_stringIcNS_11char_traitsIcEENS_9allocatorIcEEE6substrB8ue170006Emm, symObjAddr: 0x6608, symBinAddr: 0x10000A970, symSize: 0x210 }
  - { offsetInCU: 0x1543B, offset: 0x1543B, size: 0x8, addend: 0x0, symName: __ZNSt3__16vectorINS_12basic_stringIcNS_11char_traitsIcEENS_9allocatorIcEEEENS4_IS6_EEEaSB8ue170006EOS8_, symObjAddr: 0x6818, symBinAddr: 0x10000AB80, symSize: 0x34 }
  - { offsetInCU: 0x15472, offset: 0x15472, size: 0x8, addend: 0x0, symName: __ZNSt3__16vectorINS_12basic_stringIcNS_11char_traitsIcEENS_9allocatorIcEEEENS4_IS6_EEED1B8ue170006Ev, symObjAddr: 0x684C, symBinAddr: 0x10000ABB4, symSize: 0x2C }
  - { offsetInCU: 0x1549C, offset: 0x1549C, size: 0x8, addend: 0x0, symName: __ZNKSt3__16vectorINS_12basic_stringIcNS_11char_traitsIcEENS_9allocatorIcEEEENS4_IS6_EEE4sizeB8ue170006Ev, symObjAddr: 0x6878, symBinAddr: 0x10000ABE0, symSize: 0xB0 }
  - { offsetInCU: 0x154C2, offset: 0x154C2, size: 0x8, addend: 0x0, symName: __ZNSt3__16vectorINS_12basic_stringIcNS_11char_traitsIcEENS_9allocatorIcEEEENS4_IS6_EEEixB8ue170006Em, symObjAddr: 0x6928, symBinAddr: 0x10000AC90, symSize: 0x74 }
  - { offsetInCU: 0x154F9, offset: 0x154F9, size: 0x8, addend: 0x0, symName: __ZN12ParseMessageD1Ev, symObjAddr: 0x699C, symBinAddr: 0x10000AD04, symSize: 0x2C }
  - { offsetInCU: 0x15525, offset: 0x15525, size: 0x8, addend: 0x0, symName: __ZNSt3__13mapIiP6ClientNS_4lessIiEENS_9allocatorINS_4pairIKiS2_EEEEE4findB8ue170006ERS7_, symObjAddr: 0x69C8, symBinAddr: 0x10000AD30, symSize: 0x2BC }
  - { offsetInCU: 0x1555C, offset: 0x1555C, size: 0x8, addend: 0x0, symName: __ZNSt3__13mapIiP6ClientNS_4lessIiEENS_9allocatorINS_4pairIKiS2_EEEEE3endB8ue170006Ev, symObjAddr: 0x6CB4, symBinAddr: 0x10000B01C, symSize: 0x2B4 }
  - { offsetInCU: 0x15583, offset: 0x15583, size: 0x8, addend: 0x0, symName: __ZNKSt3__114__map_iteratorINS_15__tree_iteratorINS_12__value_typeIiP6ClientEEPNS_11__tree_nodeIS5_PvEElEEEptB8ue170006Ev, symObjAddr: 0x6F68, symBinAddr: 0x10000B2D0, symSize: 0x2C }
  - { offsetInCU: 0x155A9, offset: 0x155A9, size: 0x8, addend: 0x0, symName: __ZN6ClientD1Ev, symObjAddr: 0x6F94, symBinAddr: 0x10000B2FC, symSize: 0x2C }
  - { offsetInCU: 0x155D5, offset: 0x155D5, size: 0x8, addend: 0x0, symName: __ZNSt3__13mapIiP6ClientNS_4lessIiEENS_9allocatorINS_4pairIKiS2_EEEEE5eraseB8ue170006ENS_14__map_iteratorINS_15__tree_iteratorINS_12__value_typeIiS2_EEPNS_11__tree_nodeISE_PvEElEEEE, symObjAddr: 0x6FC0, symBinAddr: 0x10000B328, symSize: 0x3E4 }
  - { offsetInCU: 0x1560F, offset: 0x1560F, size: 0x8, addend: 0x0, symName: __ZNSt3__16vectorI6pollfdNS_9allocatorIS1_EEE5eraseB8ue170006ENS_11__wrap_iterIPKS1_EE, symObjAddr: 0x73A4, symBinAddr: 0x10000B70C, symSize: 0x3F0 }
  - { offsetInCU: 0x15675, offset: 0x15675, size: 0x8, addend: 0x0, symName: __ZNSt3__111__wrap_iterIPK6pollfdEC1B8ue170006IPS1_EERKNS0_IT_EEPNS_9enable_ifIXsr14is_convertibleIS7_S3_EE5valueEvE4typeE, symObjAddr: 0x7794, symBinAddr: 0x10000BAFC, symSize: 0x3C }
  - { offsetInCU: 0x156C1, offset: 0x156C1, size: 0x8, addend: 0x0, symName: __ZN6Server17getServerPasswordEv, symObjAddr: 0x77D0, symBinAddr: 0x10000BB38, symSize: 0x3C }
  - { offsetInCU: 0x156EA, offset: 0x156EA, size: 0x8, addend: 0x0, symName: __ZNSt3__13mapIiP6ClientNS_4lessIiEENS_9allocatorINS_4pairIKiS2_EEEEE5beginB8ue170006Ev, symObjAddr: 0x780C, symBinAddr: 0x10000BB74, symSize: 0x2B4 }
  - { offsetInCU: 0x15711, offset: 0x15711, size: 0x8, addend: 0x0, symName: __ZNSt3__114__map_iteratorINS_15__tree_iteratorINS_12__value_typeIiP6ClientEEPNS_11__tree_nodeIS5_PvEElEEEppB8ue170006Ev, symObjAddr: 0x7AC0, symBinAddr: 0x10000BE28, symSize: 0x2C }
  - { offsetInCU: 0x15737, offset: 0x15737, size: 0x8, addend: 0x0, symName: __ZNSt3__16vectorI6pollfdNS_9allocatorIS1_EEE5clearB8ue170006Ev, symObjAddr: 0x7AEC, symBinAddr: 0x10000BE54, symSize: 0x44 }
  - { offsetInCU: 0x1576C, offset: 0x1576C, size: 0x8, addend: 0x0, symName: __ZNSt3__13mapIiP6ClientNS_4lessIiEENS_9allocatorINS_4pairIKiS2_EEEEE5clearB8ue170006Ev, symObjAddr: 0x7B30, symBinAddr: 0x10000BE98, symSize: 0x24 }
  - { offsetInCU: 0x15792, offset: 0x15792, size: 0x8, addend: 0x0, symName: __ZN6ServerD1Ev, symObjAddr: 0x7B54, symBinAddr: 0x10000BEBC, symSize: 0x2C }
  - { offsetInCU: 0x157BE, offset: 0x157BE, size: 0x8, addend: 0x0, symName: __ZN6ServerC2Ev, symObjAddr: 0x7B80, symBinAddr: 0x10000BEE8, symSize: 0x14C }
  - { offsetInCU: 0x157E8, offset: 0x157E8, size: 0x8, addend: 0x0, symName: __ZNSt3__112basic_stringIcNS_11char_traitsIcEENS_9allocatorIcEEEC1B8ue170006Ev, symObjAddr: 0x7CCC, symBinAddr: 0x10000C034, symSize: 0x2C }
  - { offsetInCU: 0x15812, offset: 0x15812, size: 0x8, addend: 0x0, symName: __ZNSt3__13mapIiP6ClientNS_4lessIiEENS_9allocatorINS_4pairIKiS2_EEEEEC1B8ue170006Ev, symObjAddr: 0x7CF8, symBinAddr: 0x10000C060, symSize: 0x2C }
  - { offsetInCU: 0x1583C, offset: 0x1583C, size: 0x8, addend: 0x0, symName: __ZNSt3__13mapINS_12basic_stringIcNS_11char_traitsIcEENS_9allocatorIcEEEE7ChannelNS_4lessIS6_EENS4_INS_4pairIKS6_S7_EEEEEC1B8ue170006Ev, symObjAddr: 0x7D24, symBinAddr: 0x10000C08C, symSize: 0x2C }
  - { offsetInCU: 0x15866, offset: 0x15866, size: 0x8, addend: 0x0, symName: __ZNSt3__16vectorI6pollfdNS_9allocatorIS1_EEEC1B8ue170006Ev, symObjAddr: 0x7D50, symBinAddr: 0x10000C0B8, symSize: 0x2C }
  - { offsetInCU: 0x15890, offset: 0x15890, size: 0x8, addend: 0x0, symName: __ZNSt3__13mapINS_12basic_stringIcNS_11char_traitsIcEENS_9allocatorIcEEEE7ChannelNS_4lessIS6_EENS4_INS_4pairIKS6_S7_EEEEED1B8ue170006Ev, symObjAddr: 0x7D7C, symBinAddr: 0x10000C0E4, symSize: 0x2C }
  - { offsetInCU: 0x158BA, offset: 0x158BA, size: 0x8, addend: 0x0, symName: __ZNSt3__13mapIiP6ClientNS_4lessIiEENS_9allocatorINS_4pairIKiS2_EEEEED1B8ue170006Ev, symObjAddr: 0x7DA8, symBinAddr: 0x10000C110, symSize: 0x2C }
  - { offsetInCU: 0x158E4, offset: 0x158E4, size: 0x8, addend: 0x0, symName: __ZNSt3__112basic_stringIcNS_11char_traitsIcEENS_9allocatorIcEEEC2B8ue170006Ev, symObjAddr: 0x7DD4, symBinAddr: 0x10000C13C, symSize: 0x1F4 }
  - { offsetInCU: 0x15915, offset: 0x15915, size: 0x8, addend: 0x0, symName: __ZNSt3__117__compressed_pairINS_12basic_stringIcNS_11char_traitsIcEENS_9allocatorIcEEE5__repES5_EC1B8ue170006INS_18__default_init_tagESA_EEOT_OT0_, symObjAddr: 0x7FC8, symBinAddr: 0x10000C330, symSize: 0x3C }
  - { offsetInCU: 0x1596D, offset: 0x1596D, size: 0x8, addend: 0x0, symName: __ZNSt3__112basic_stringIcNS_11char_traitsIcEENS_9allocatorIcEEE14__default_initB8ue170006Ev, symObjAddr: 0x8004, symBinAddr: 0x10000C36C, symSize: 0x298 }
  - { offsetInCU: 0x159C3, offset: 0x159C3, size: 0x8, addend: 0x0, symName: __ZNSt3__117__compressed_pairINS_12basic_stringIcNS_11char_traitsIcEENS_9allocatorIcEEE5__repES5_EC2B8ue170006INS_18__default_init_tagESA_EEOT_OT0_, symObjAddr: 0x829C, symBinAddr: 0x10000C604, symSize: 0x3C }
  - { offsetInCU: 0x15A1B, offset: 0x15A1B, size: 0x8, addend: 0x0, symName: __ZNSt3__122__compressed_pair_elemINS_12basic_stringIcNS_11char_traitsIcEENS_9allocatorIcEEE5__repELi0ELb0EEC2B8ue170006ENS_18__default_init_tagE, symObjAddr: 0x82D8, symBinAddr: 0x10000C640, symSize: 0x14 }
  - { offsetInCU: 0x15A50, offset: 0x15A50, size: 0x8, addend: 0x0, symName: __ZNSt3__122__compressed_pair_elemINS_9allocatorIcEELi1ELb1EEC2B8ue170006ENS_18__default_init_tagE, symObjAddr: 0x82EC, symBinAddr: 0x10000C654, symSize: 0x2C }
  - { offsetInCU: 0x15A85, offset: 0x15A85, size: 0x8, addend: 0x0, symName: __ZNSt3__19allocatorIcEC2B8ue170006Ev, symObjAddr: 0x8318, symBinAddr: 0x10000C680, symSize: 0x2C }
  - { offsetInCU: 0x15AAF, offset: 0x15AAF, size: 0x8, addend: 0x0, symName: __ZNSt3__116__non_trivial_ifILb1ENS_9allocatorIcEEEC2B8ue170006Ev, symObjAddr: 0x8344, symBinAddr: 0x10000C6AC, symSize: 0x14 }
  - { offsetInCU: 0x15AD9, offset: 0x15AD9, size: 0x8, addend: 0x0, symName: __ZNSt3__117__compressed_pairINS_12basic_stringIcNS_11char_traitsIcEENS_9allocatorIcEEE5__repES5_E5firstB8ue170006Ev, symObjAddr: 0x8358, symBinAddr: 0x10000C6C0, symSize: 0x24 }
  - { offsetInCU: 0x15AFF, offset: 0x15AFF, size: 0x8, addend: 0x0, symName: __ZNSt3__112basic_stringIcNS_11char_traitsIcEENS_9allocatorIcEEE11__recommendB8ue170006Em, symObjAddr: 0x8388, symBinAddr: 0x10000C6F0, symSize: 0x9C }
  - { offsetInCU: 0x15B32, offset: 0x15B32, size: 0x8, addend: 0x0, symName: __ZNSt3__116allocator_traitsINS_9allocatorIcEEE8allocateB8ue170006ERS2_m, symObjAddr: 0x8424, symBinAddr: 0x10000C78C, symSize: 0x2C }
  - { offsetInCU: 0x15B65, offset: 0x15B65, size: 0x8, addend: 0x0, symName: __ZNSt3__112basic_stringIcNS_11char_traitsIcEENS_9allocatorIcEEE7__allocB8ue170006Ev, symObjAddr: 0x8450, symBinAddr: 0x10000C7B8, symSize: 0x24 }
  - { offsetInCU: 0x15B8B, offset: 0x15B8B, size: 0x8, addend: 0x0, symName: __ZNSt3__112basic_stringIcNS_11char_traitsIcEENS_9allocatorIcEEE16__begin_lifetimeB8ue170006EPcm, symObjAddr: 0x8474, symBinAddr: 0x10000C7DC, symSize: 0x14 }
  - { offsetInCU: 0x15BBE, offset: 0x15BBE, size: 0x8, addend: 0x0, symName: __ZNSt3__112basic_stringIcNS_11char_traitsIcEENS_9allocatorIcEEE18__set_long_pointerB8ue170006EPc, symObjAddr: 0x8488, symBinAddr: 0x10000C7F0, symSize: 0x7C }
  - { offsetInCU: 0x15BF3, offset: 0x15BF3, size: 0x8, addend: 0x0, symName: __ZNSt3__112basic_stringIcNS_11char_traitsIcEENS_9allocatorIcEEE14__set_long_capB8ue170006Em, symObjAddr: 0x8504, symBinAddr: 0x10000C86C, symSize: 0xEC }
  - { offsetInCU: 0x15C28, offset: 0x15C28, size: 0x8, addend: 0x0, symName: __ZNSt3__112basic_stringIcNS_11char_traitsIcEENS_9allocatorIcEEE15__set_long_sizeB8ue170006Em, symObjAddr: 0x85F0, symBinAddr: 0x10000C958, symSize: 0x80 }
  - { offsetInCU: 0x15C5D, offset: 0x15C5D, size: 0x8, addend: 0x0, symName: __ZNSt3__122__compressed_pair_elemINS_12basic_stringIcNS_11char_traitsIcEENS_9allocatorIcEEE5__repELi0ELb0EE5__getB8ue170006Ev, symObjAddr: 0x8670, symBinAddr: 0x10000C9D8, symSize: 0x14 }
  - { offsetInCU: 0x15C83, offset: 0x15C83, size: 0x8, addend: 0x0, symName: __ZNSt3__112basic_stringIcNS_11char_traitsIcEENS_9allocatorIcEEE10__align_itB8ue170006ILm16EEEmm, symObjAddr: 0x8684, symBinAddr: 0x10000C9EC, symSize: 0x1C }
  - { offsetInCU: 0x15CB1, offset: 0x15CB1, size: 0x8, addend: 0x0, symName: __ZNSt3__19allocatorIcE8allocateB8ue170006Em, symObjAddr: 0x86A0, symBinAddr: 0x10000CA08, symSize: 0x88 }
  - { offsetInCU: 0x15CEF, offset: 0x15CEF, size: 0x8, addend: 0x0, symName: __ZNSt3__116allocator_traitsINS_9allocatorIcEEE8max_sizeB8ue170006IS2_vEEmRKS2_, symObjAddr: 0x8728, symBinAddr: 0x10000CA90, symSize: 0x24 }
  - { offsetInCU: 0x15D1D, offset: 0x15D1D, size: 0x8, addend: 0x0, symName: __ZNKSt3__19allocatorIcE8max_sizeB8ue170006Ev, symObjAddr: 0x87AC, symBinAddr: 0x10000CB14, symSize: 0x14 }
  - { offsetInCU: 0x15D43, offset: 0x15D43, size: 0x8, addend: 0x0, symName: __ZNSt3__117__compressed_pairINS_12basic_stringIcNS_11char_traitsIcEENS_9allocatorIcEEE5__repES5_E6secondB8ue170006Ev, symObjAddr: 0x87E4, symBinAddr: 0x10000CB4C, symSize: 0x24 }
  - { offsetInCU: 0x15D69, offset: 0x15D69, size: 0x8, addend: 0x0, symName: __ZNSt3__122__compressed_pair_elemINS_9allocatorIcEELi1ELb1EE5__getB8ue170006Ev, symObjAddr: 0x8808, symBinAddr: 0x10000CB70, symSize: 0x14 }
  - { offsetInCU: 0x15D8F, offset: 0x15D8F, size: 0x8, addend: 0x0, symName: __ZNSt3__13mapIiP6ClientNS_4lessIiEENS_9allocatorINS_4pairIKiS2_EEEEEC2B8ue170006Ev, symObjAddr: 0x881C, symBinAddr: 0x10000CB84, symSize: 0x1E8 }
  - { offsetInCU: 0x15DBA, offset: 0x15DBA, size: 0x8, addend: 0x0, symName: __ZNSt3__119__map_value_compareIiNS_12__value_typeIiP6ClientEENS_4lessIiEELb1EEC1B8ue170006ES6_, symObjAddr: 0x8A04, symBinAddr: 0x10000CD6C, symSize: 0x2C }
  - { offsetInCU: 0x15DF3, offset: 0x15DF3, size: 0x8, addend: 0x0, symName: __ZNSt3__16__treeINS_12__value_typeIiP6ClientEENS_19__map_value_compareIiS4_NS_4lessIiEELb1EEENS_9allocatorIS4_EEEC1ERKS8_, symObjAddr: 0x8A30, symBinAddr: 0x10000CD98, symSize: 0x34 }
  - { offsetInCU: 0x15E2E, offset: 0x15E2E, size: 0x8, addend: 0x0, symName: __ZNSt3__119__map_value_compareIiNS_12__value_typeIiP6ClientEENS_4lessIiEELb1EEC2B8ue170006ES6_, symObjAddr: 0x8A64, symBinAddr: 0x10000CDCC, symSize: 0x14 }
  - { offsetInCU: 0x15E67, offset: 0x15E67, size: 0x8, addend: 0x0, symName: __ZNSt3__16__treeINS_12__value_typeIiP6ClientEENS_19__map_value_compareIiS4_NS_4lessIiEELb1EEENS_9allocatorIS4_EEEC2ERKS8_, symObjAddr: 0x8A78, symBinAddr: 0x10000CDE0, symSize: 0x2B4 }
  - { offsetInCU: 0x15EA4, offset: 0x15EA4, size: 0x8, addend: 0x0, symName: __ZNSt3__117__compressed_pairINS_15__tree_end_nodeIPNS_16__tree_node_baseIPvEEEENS_9allocatorINS_11__tree_nodeINS_12__value_typeIiP6ClientEES3_EEEEEC1B8ue170006ILb1EvEEv, symObjAddr: 0x8D2C, symBinAddr: 0x10000D094, symSize: 0x2C }
  - { offsetInCU: 0x15EDF, offset: 0x15EDF, size: 0x8, addend: 0x0, symName: __ZNSt3__117__compressed_pairImNS_19__map_value_compareIiNS_12__value_typeIiP6ClientEENS_4lessIiEELb1EEEEC1B8ue170006IiRKS8_EEOT_OT0_, symObjAddr: 0x8D58, symBinAddr: 0x10000D0C0, symSize: 0x3C }
  - { offsetInCU: 0x15F37, offset: 0x15F37, size: 0x8, addend: 0x0, symName: __ZNSt3__16__treeINS_12__value_typeIiP6ClientEENS_19__map_value_compareIiS4_NS_4lessIiEELb1EEENS_9allocatorIS4_EEE10__end_nodeB8ue170006Ev, symObjAddr: 0x8D94, symBinAddr: 0x10000D0FC, symSize: 0x2C }
  - { offsetInCU: 0x15F5D, offset: 0x15F5D, size: 0x8, addend: 0x0, symName: __ZNSt3__16__treeINS_12__value_typeIiP6ClientEENS_19__map_value_compareIiS4_NS_4lessIiEELb1EEENS_9allocatorIS4_EEE12__begin_nodeB8ue170006Ev, symObjAddr: 0x8DC0, symBinAddr: 0x10000D128, symSize: 0x14 }
  - { offsetInCU: 0x15F83, offset: 0x15F83, size: 0x8, addend: 0x0, symName: __ZNSt3__117__compressed_pairINS_15__tree_end_nodeIPNS_16__tree_node_baseIPvEEEENS_9allocatorINS_11__tree_nodeINS_12__value_typeIiP6ClientEES3_EEEEEC2B8ue170006ILb1EvEEv, symObjAddr: 0x8DD4, symBinAddr: 0x10000D13C, symSize: 0x34 }
  - { offsetInCU: 0x15FB8, offset: 0x15FB8, size: 0x8, addend: 0x0, symName: __ZNSt3__122__compressed_pair_elemINS_15__tree_end_nodeIPNS_16__tree_node_baseIPvEEEELi0ELb0EEC2B8ue170006ENS_16__value_init_tagE, symObjAddr: 0x8E08, symBinAddr: 0x10000D170, symSize: 0x2C }
  - { offsetInCU: 0x15FED, offset: 0x15FED, size: 0x8, addend: 0x0, symName: __ZNSt3__122__compressed_pair_elemINS_9allocatorINS_11__tree_nodeINS_12__value_typeIiP6ClientEEPvEEEELi1ELb1EEC2B8ue170006ENS_16__value_init_tagE, symObjAddr: 0x8E34, symBinAddr: 0x10000D19C, symSize: 0x2C }
  - { offsetInCU: 0x16022, offset: 0x16022, size: 0x8, addend: 0x0, symName: __ZNSt3__115__tree_end_nodeIPNS_16__tree_node_baseIPvEEEC1B8ue170006Ev, symObjAddr: 0x8E60, symBinAddr: 0x10000D1C8, symSize: 0x2C }
  - { offsetInCU: 0x1604C, offset: 0x1604C, size: 0x8, addend: 0x0, symName: __ZNSt3__115__tree_end_nodeIPNS_16__tree_node_baseIPvEEEC2B8ue170006Ev, symObjAddr: 0x8E8C, symBinAddr: 0x10000D1F4, symSize: 0x60 }
  - { offsetInCU: 0x16076, offset: 0x16076, size: 0x8, addend: 0x0, symName: __ZNSt3__19allocatorINS_11__tree_nodeINS_12__value_typeIiP6ClientEEPvEEEC2B8ue170006Ev, symObjAddr: 0x8EEC, symBinAddr: 0x10000D254, symSize: 0x2C }
  - { offsetInCU: 0x160A0, offset: 0x160A0, size: 0x8, addend: 0x0, symName: __ZNSt3__116__non_trivial_ifILb1ENS_9allocatorINS_11__tree_nodeINS_12__value_typeIiP6ClientEEPvEEEEEC2B8ue170006Ev, symObjAddr: 0x8F18, symBinAddr: 0x10000D280, symSize: 0x14 }
  - { offsetInCU: 0x160CA, offset: 0x160CA, size: 0x8, addend: 0x0, symName: __ZNSt3__117__compressed_pairImNS_19__map_value_compareIiNS_12__value_typeIiP6ClientEENS_4lessIiEELb1EEEEC2B8ue170006IiRKS8_EEOT_OT0_, symObjAddr: 0x8F2C, symBinAddr: 0x10000D294, symSize: 0x44 }
  - { offsetInCU: 0x16122, offset: 0x16122, size: 0x8, addend: 0x0, symName: __ZNSt3__122__compressed_pair_elemImLi0ELb0EEC2B8ue170006IivEEOT_, symObjAddr: 0x8F70, symBinAddr: 0x10000D2D8, symSize: 0xD8 }
  - { offsetInCU: 0x16164, offset: 0x16164, size: 0x8, addend: 0x0, symName: __ZNSt3__122__compressed_pair_elemINS_19__map_value_compareIiNS_12__value_typeIiP6ClientEENS_4lessIiEELb1EEELi1ELb1EEC2B8ue170006IRKS8_vEEOT_, symObjAddr: 0x9048, symBinAddr: 0x10000D3B0, symSize: 0x18 }
  - { offsetInCU: 0x161A6, offset: 0x161A6, size: 0x8, addend: 0x0, symName: __ZNSt3__114pointer_traitsIPNS_15__tree_end_nodeIPNS_16__tree_node_baseIPvEEEEE10pointer_toB8ue170006ERS6_, symObjAddr: 0x9060, symBinAddr: 0x10000D3C8, symSize: 0x14 }
  - { offsetInCU: 0x161C9, offset: 0x161C9, size: 0x8, addend: 0x0, symName: __ZNSt3__117__compressed_pairINS_15__tree_end_nodeIPNS_16__tree_node_baseIPvEEEENS_9allocatorINS_11__tree_nodeINS_12__value_typeIiP6ClientEES3_EEEEE5firstB8ue170006Ev, symObjAddr: 0x9074, symBinAddr: 0x10000D3DC, symSize: 0x24 }
  - { offsetInCU: 0x161EF, offset: 0x161EF, size: 0x8, addend: 0x0, symName: __ZNSt3__122__compressed_pair_elemINS_15__tree_end_nodeIPNS_16__tree_node_baseIPvEEEELi0ELb0EE5__getB8ue170006Ev, symObjAddr: 0x9098, symBinAddr: 0x10000D400, symSize: 0x14 }
  - { offsetInCU: 0x16215, offset: 0x16215, size: 0x8, addend: 0x0, symName: __ZNSt3__13mapINS_12basic_stringIcNS_11char_traitsIcEENS_9allocatorIcEEEE7ChannelNS_4lessIS6_EENS4_INS_4pairIKS6_S7_EEEEEC2B8ue170006Ev, symObjAddr: 0x90AC, symBinAddr: 0x10000D414, symSize: 0x1E8 }
  - { offsetInCU: 0x16240, offset: 0x16240, size: 0x8, addend: 0x0, symName: __ZNSt3__119__map_value_compareINS_12basic_stringIcNS_11char_traitsIcEENS_9allocatorIcEEEENS_12__value_typeIS6_7ChannelEENS_4lessIS6_EELb1EEC1B8ue170006ESB_, symObjAddr: 0x9294, symBinAddr: 0x10000D5FC, symSize: 0x2C }
  - { offsetInCU: 0x16279, offset: 0x16279, size: 0x8, addend: 0x0, symName: __ZNSt3__16__treeINS_12__value_typeINS_12basic_stringIcNS_11char_traitsIcEENS_9allocatorIcEEEE7ChannelEENS_19__map_value_compareIS7_S9_NS_4lessIS7_EELb1EEENS5_IS9_EEEC1ERKSD_, symObjAddr: 0x92C0, symBinAddr: 0x10000D628, symSize: 0x34 }
  - { offsetInCU: 0x162B4, offset: 0x162B4, size: 0x8, addend: 0x0, symName: __ZNSt3__119__map_value_compareINS_12basic_stringIcNS_11char_traitsIcEENS_9allocatorIcEEEENS_12__value_typeIS6_7ChannelEENS_4lessIS6_EELb1EEC2B8ue170006ESB_, symObjAddr: 0x92F4, symBinAddr: 0x10000D65C, symSize: 0x14 }
  - { offsetInCU: 0x162ED, offset: 0x162ED, size: 0x8, addend: 0x0, symName: __ZNSt3__16__treeINS_12__value_typeINS_12basic_stringIcNS_11char_traitsIcEENS_9allocatorIcEEEE7ChannelEENS_19__map_value_compareIS7_S9_NS_4lessIS7_EELb1EEENS5_IS9_EEEC2ERKSD_, symObjAddr: 0x9308, symBinAddr: 0x10000D670, symSize: 0x2B4 }
  - { offsetInCU: 0x1632A, offset: 0x1632A, size: 0x8, addend: 0x0, symName: __ZNSt3__117__compressed_pairINS_15__tree_end_nodeIPNS_16__tree_node_baseIPvEEEENS_9allocatorINS_11__tree_nodeINS_12__value_typeINS_12basic_stringIcNS_11char_traitsIcEENS7_IcEEEE7ChannelEES3_EEEEEC1B8ue170006ILb1EvEEv, symObjAddr: 0x95BC, symBinAddr: 0x10000D924, symSize: 0x2C }
  - { offsetInCU: 0x1635F, offset: 0x1635F, size: 0x8, addend: 0x0, symName: __ZNSt3__117__compressed_pairImNS_19__map_value_compareINS_12basic_stringIcNS_11char_traitsIcEENS_9allocatorIcEEEENS_12__value_typeIS7_7ChannelEENS_4lessIS7_EELb1EEEEC1B8ue170006IiRKSD_EEOT_OT0_, symObjAddr: 0x95E8, symBinAddr: 0x10000D950, symSize: 0x3C }
  - { offsetInCU: 0x163B7, offset: 0x163B7, size: 0x8, addend: 0x0, symName: __ZNSt3__16__treeINS_12__value_typeINS_12basic_stringIcNS_11char_traitsIcEENS_9allocatorIcEEEE7ChannelEENS_19__map_value_compareIS7_S9_NS_4lessIS7_EELb1EEENS5_IS9_EEE10__end_nodeB8ue170006Ev, symObjAddr: 0x9624, symBinAddr: 0x10000D98C, symSize: 0x2C }
  - { offsetInCU: 0x163DD, offset: 0x163DD, size: 0x8, addend: 0x0, symName: __ZNSt3__16__treeINS_12__value_typeINS_12basic_stringIcNS_11char_traitsIcEENS_9allocatorIcEEEE7ChannelEENS_19__map_value_compareIS7_S9_NS_4lessIS7_EELb1EEENS5_IS9_EEE12__begin_nodeB8ue170006Ev, symObjAddr: 0x9650, symBinAddr: 0x10000D9B8, symSize: 0x14 }
  - { offsetInCU: 0x16403, offset: 0x16403, size: 0x8, addend: 0x0, symName: __ZNSt3__117__compressed_pairINS_15__tree_end_nodeIPNS_16__tree_node_baseIPvEEEENS_9allocatorINS_11__tree_nodeINS_12__value_typeINS_12basic_stringIcNS_11char_traitsIcEENS7_IcEEEE7ChannelEES3_EEEEEC2B8ue170006ILb1EvEEv, symObjAddr: 0x9664, symBinAddr: 0x10000D9CC, symSize: 0x34 }
  - { offsetInCU: 0x16438, offset: 0x16438, size: 0x8, addend: 0x0, symName: __ZNSt3__122__compressed_pair_elemINS_9allocatorINS_11__tree_nodeINS_12__value_typeINS_12basic_stringIcNS_11char_traitsIcEENS1_IcEEEE7ChannelEEPvEEEELi1ELb1EEC2B8ue170006ENS_16__value_init_tagE, symObjAddr: 0x9698, symBinAddr: 0x10000DA00, symSize: 0x2C }
  - { offsetInCU: 0x1646D, offset: 0x1646D, size: 0x8, addend: 0x0, symName: __ZNSt3__19allocatorINS_11__tree_nodeINS_12__value_typeINS_12basic_stringIcNS_11char_traitsIcEENS0_IcEEEE7ChannelEEPvEEEC2B8ue170006Ev, symObjAddr: 0x96C4, symBinAddr: 0x10000DA2C, symSize: 0x2C }
  - { offsetInCU: 0x16497, offset: 0x16497, size: 0x8, addend: 0x0, symName: __ZNSt3__116__non_trivial_ifILb1ENS_9allocatorINS_11__tree_nodeINS_12__value_typeINS_12basic_stringIcNS_11char_traitsIcEENS1_IcEEEE7ChannelEEPvEEEEEC2B8ue170006Ev, symObjAddr: 0x96F0, symBinAddr: 0x10000DA58, symSize: 0x14 }
  - { offsetInCU: 0x164C1, offset: 0x164C1, size: 0x8, addend: 0x0, symName: __ZNSt3__117__compressed_pairImNS_19__map_value_compareINS_12basic_stringIcNS_11char_traitsIcEENS_9allocatorIcEEEENS_12__value_typeIS7_7ChannelEENS_4lessIS7_EELb1EEEEC2B8ue170006IiRKSD_EEOT_OT0_, symObjAddr: 0x9704, symBinAddr: 0x10000DA6C, symSize: 0x44 }
  - { offsetInCU: 0x16519, offset: 0x16519, size: 0x8, addend: 0x0, symName: __ZNSt3__122__compressed_pair_elemINS_19__map_value_compareINS_12basic_stringIcNS_11char_traitsIcEENS_9allocatorIcEEEENS_12__value_typeIS7_7ChannelEENS_4lessIS7_EELb1EEELi1ELb1EEC2B8ue170006IRKSD_vEEOT_, symObjAddr: 0x9748, symBinAddr: 0x10000DAB0, symSize: 0x18 }
  - { offsetInCU: 0x1655B, offset: 0x1655B, size: 0x8, addend: 0x0, symName: __ZNSt3__117__compressed_pairINS_15__tree_end_nodeIPNS_16__tree_node_baseIPvEEEENS_9allocatorINS_11__tree_nodeINS_12__value_typeINS_12basic_stringIcNS_11char_traitsIcEENS7_IcEEEE7ChannelEES3_EEEEE5firstB8ue170006Ev, symObjAddr: 0x9760, symBinAddr: 0x10000DAC8, symSize: 0x24 }
  - { offsetInCU: 0x16581, offset: 0x16581, size: 0x8, addend: 0x0, symName: __ZNSt3__16vectorI6pollfdNS_9allocatorIS1_EEEC2B8ue170006Ev, symObjAddr: 0x9784, symBinAddr: 0x10000DAEC, symSize: 0x2D4 }
  - { offsetInCU: 0x165B2, offset: 0x165B2, size: 0x8, addend: 0x0, symName: __ZNSt3__117__compressed_pairIP6pollfdNS_9allocatorIS1_EEEC1B8ue170006IDnNS_18__default_init_tagEEEOT_OT0_, symObjAddr: 0x9A58, symBinAddr: 0x10000DDC0, symSize: 0x3C }
  - { offsetInCU: 0x1660A, offset: 0x1660A, size: 0x8, addend: 0x0, symName: __ZNSt3__117__compressed_pairIP6pollfdNS_9allocatorIS1_EEEC2B8ue170006IDnNS_18__default_init_tagEEEOT_OT0_, symObjAddr: 0x9A94, symBinAddr: 0x10000DDFC, symSize: 0x40 }
  - { offsetInCU: 0x16662, offset: 0x16662, size: 0x8, addend: 0x0, symName: __ZNSt3__122__compressed_pair_elemIP6pollfdLi0ELb0EEC2B8ue170006IDnvEEOT_, symObjAddr: 0x9AD4, symBinAddr: 0x10000DE3C, symSize: 0x64 }
  - { offsetInCU: 0x166A4, offset: 0x166A4, size: 0x8, addend: 0x0, symName: __ZNSt3__122__compressed_pair_elemINS_9allocatorI6pollfdEELi1ELb1EEC2B8ue170006ENS_18__default_init_tagE, symObjAddr: 0x9B38, symBinAddr: 0x10000DEA0, symSize: 0x2C }
  - { offsetInCU: 0x166D9, offset: 0x166D9, size: 0x8, addend: 0x0, symName: __ZNSt3__19allocatorI6pollfdEC2B8ue170006Ev, symObjAddr: 0x9B64, symBinAddr: 0x10000DECC, symSize: 0x2C }
  - { offsetInCU: 0x16703, offset: 0x16703, size: 0x8, addend: 0x0, symName: __ZNSt3__116__non_trivial_ifILb1ENS_9allocatorI6pollfdEEEC2B8ue170006Ev, symObjAddr: 0x9B90, symBinAddr: 0x10000DEF8, symSize: 0x14 }
  - { offsetInCU: 0x1672D, offset: 0x1672D, size: 0x8, addend: 0x0, symName: __ZNSt3__13mapINS_12basic_stringIcNS_11char_traitsIcEENS_9allocatorIcEEEE7ChannelNS_4lessIS6_EENS4_INS_4pairIKS6_S7_EEEEED2B8ue170006Ev, symObjAddr: 0x9BA4, symBinAddr: 0x10000DF0C, symSize: 0x2C }
  - { offsetInCU: 0x16757, offset: 0x16757, size: 0x8, addend: 0x0, symName: __ZNSt3__16__treeINS_12__value_typeINS_12basic_stringIcNS_11char_traitsIcEENS_9allocatorIcEEEE7ChannelEENS_19__map_value_compareIS7_S9_NS_4lessIS7_EELb1EEENS5_IS9_EEED1Ev, symObjAddr: 0x9BD0, symBinAddr: 0x10000DF38, symSize: 0x2C }
  - { offsetInCU: 0x16783, offset: 0x16783, size: 0x8, addend: 0x0, symName: __ZNSt3__16__treeINS_12__value_typeINS_12basic_stringIcNS_11char_traitsIcEENS_9allocatorIcEEEE7ChannelEENS_19__map_value_compareIS7_S9_NS_4lessIS7_EELb1EEENS5_IS9_EEED2Ev, symObjAddr: 0x9BFC, symBinAddr: 0x10000DF64, symSize: 0x38 }
  - { offsetInCU: 0x167AF, offset: 0x167AF, size: 0x8, addend: 0x0, symName: __ZNSt3__16__treeINS_12__value_typeINS_12basic_stringIcNS_11char_traitsIcEENS_9allocatorIcEEEE7ChannelEENS_19__map_value_compareIS7_S9_NS_4lessIS7_EELb1EEENS5_IS9_EEE7destroyEPNS_11__tree_nodeIS9_PvEE, symObjAddr: 0x9C34, symBinAddr: 0x10000DF9C, symSize: 0x148 }
  - { offsetInCU: 0x16804, offset: 0x16804, size: 0x8, addend: 0x0, symName: __ZNKSt3__16__treeINS_12__value_typeINS_12basic_stringIcNS_11char_traitsIcEENS_9allocatorIcEEEE7ChannelEENS_19__map_value_compareIS7_S9_NS_4lessIS7_EELb1EEENS5_IS9_EEE6__rootB8ue170006Ev, symObjAddr: 0x9D7C, symBinAddr: 0x10000E0E4, symSize: 0x6C }
  - { offsetInCU: 0x1682A, offset: 0x1682A, size: 0x8, addend: 0x0, symName: __ZNSt3__16__treeINS_12__value_typeINS_12basic_stringIcNS_11char_traitsIcEENS_9allocatorIcEEEE7ChannelEENS_19__map_value_compareIS7_S9_NS_4lessIS7_EELb1EEENS5_IS9_EEE12__node_allocB8ue170006Ev, symObjAddr: 0x9DE8, symBinAddr: 0x10000E150, symSize: 0x28 }
  - { offsetInCU: 0x16855, offset: 0x16855, size: 0x8, addend: 0x0, symName: __ZNSt3__116allocator_traitsINS_9allocatorINS_11__tree_nodeINS_12__value_typeINS_12basic_stringIcNS_11char_traitsIcEENS1_IcEEEE7ChannelEEPvEEEEE7destroyB8ue170006INS_4pairIKS8_S9_EEvvEEvRSD_PT_, symObjAddr: 0x9E10, symBinAddr: 0x10000E178, symSize: 0x28 }
  - { offsetInCU: 0x1688F, offset: 0x1688F, size: 0x8, addend: 0x0, symName: __ZNSt3__122__tree_key_value_typesINS_12__value_typeINS_12basic_stringIcNS_11char_traitsIcEENS_9allocatorIcEEEE7ChannelEEE9__get_ptrB8ue170006ERS9_, symObjAddr: 0x9E38, symBinAddr: 0x10000E1A0, symSize: 0x24 }
  - { offsetInCU: 0x168B3, offset: 0x168B3, size: 0x8, addend: 0x0, symName: __ZNSt3__116allocator_traitsINS_9allocatorINS_11__tree_nodeINS_12__value_typeINS_12basic_stringIcNS_11char_traitsIcEENS1_IcEEEE7ChannelEEPvEEEEE10deallocateB8ue170006ERSD_PSC_m, symObjAddr: 0x9E5C, symBinAddr: 0x10000E1C4, symSize: 0x34 }
  - { offsetInCU: 0x168F5, offset: 0x168F5, size: 0x8, addend: 0x0, symName: __ZNSt3__117__compressed_pairINS_15__tree_end_nodeIPNS_16__tree_node_baseIPvEEEENS_9allocatorINS_11__tree_nodeINS_12__value_typeINS_12basic_stringIcNS_11char_traitsIcEENS7_IcEEEE7ChannelEES3_EEEEE6secondB8ue170006Ev, symObjAddr: 0x9E90, symBinAddr: 0x10000E1F8, symSize: 0x24 }
  - { offsetInCU: 0x1691B, offset: 0x1691B, size: 0x8, addend: 0x0, symName: __ZNSt3__122__compressed_pair_elemINS_9allocatorINS_11__tree_nodeINS_12__value_typeINS_12basic_stringIcNS_11char_traitsIcEENS1_IcEEEE7ChannelEEPvEEEELi1ELb1EE5__getB8ue170006Ev, symObjAddr: 0x9EB4, symBinAddr: 0x10000E21C, symSize: 0x14 }
  - { offsetInCU: 0x16941, offset: 0x16941, size: 0x8, addend: 0x0, symName: __ZNSt3__14pairIKNS_12basic_stringIcNS_11char_traitsIcEENS_9allocatorIcEEEE7ChannelED1Ev, symObjAddr: 0x9EC8, symBinAddr: 0x10000E230, symSize: 0x2C }
  - { offsetInCU: 0x1696D, offset: 0x1696D, size: 0x8, addend: 0x0, symName: __ZNSt3__14pairIKNS_12basic_stringIcNS_11char_traitsIcEENS_9allocatorIcEEEE7ChannelED2Ev, symObjAddr: 0x9EF4, symBinAddr: 0x10000E25C, symSize: 0x74 }
  - { offsetInCU: 0x16999, offset: 0x16999, size: 0x8, addend: 0x0, symName: __ZNSt3__112__value_typeINS_12basic_stringIcNS_11char_traitsIcEENS_9allocatorIcEEEE7ChannelE11__get_valueB8ue170006Ev, symObjAddr: 0x9F68, symBinAddr: 0x10000E2D0, symSize: 0x14 }
  - { offsetInCU: 0x169BF, offset: 0x169BF, size: 0x8, addend: 0x0, symName: __ZNSt3__19allocatorINS_11__tree_nodeINS_12__value_typeINS_12basic_stringIcNS_11char_traitsIcEENS0_IcEEEE7ChannelEEPvEEE10deallocateB8ue170006EPSB_m, symObjAddr: 0x9F7C, symBinAddr: 0x10000E2E4, symSize: 0x80 }
  - { offsetInCU: 0x16A01, offset: 0x16A01, size: 0x8, addend: 0x0, symName: __ZNKSt3__16__treeINS_12__value_typeINS_12basic_stringIcNS_11char_traitsIcEENS_9allocatorIcEEEE7ChannelEENS_19__map_value_compareIS7_S9_NS_4lessIS7_EELb1EEENS5_IS9_EEE10__end_nodeB8ue170006Ev, symObjAddr: 0xA078, symBinAddr: 0x10000E3E0, symSize: 0x2C }
  - { offsetInCU: 0x16A27, offset: 0x16A27, size: 0x8, addend: 0x0, symName: __ZNKSt3__117__compressed_pairINS_15__tree_end_nodeIPNS_16__tree_node_baseIPvEEEENS_9allocatorINS_11__tree_nodeINS_12__value_typeINS_12basic_stringIcNS_11char_traitsIcEENS7_IcEEEE7ChannelEES3_EEEEE5firstB8ue170006Ev, symObjAddr: 0xA0A4, symBinAddr: 0x10000E40C, symSize: 0x24 }
  - { offsetInCU: 0x16A4D, offset: 0x16A4D, size: 0x8, addend: 0x0, symName: __ZNKSt3__122__compressed_pair_elemINS_15__tree_end_nodeIPNS_16__tree_node_baseIPvEEEELi0ELb0EE5__getB8ue170006Ev, symObjAddr: 0xA0C8, symBinAddr: 0x10000E430, symSize: 0x14 }
  - { offsetInCU: 0x16A73, offset: 0x16A73, size: 0x8, addend: 0x0, symName: __ZNSt3__13mapIiP6ClientNS_4lessIiEENS_9allocatorINS_4pairIKiS2_EEEEED2B8ue170006Ev, symObjAddr: 0xA0DC, symBinAddr: 0x10000E444, symSize: 0x2C }
  - { offsetInCU: 0x16A9D, offset: 0x16A9D, size: 0x8, addend: 0x0, symName: __ZNSt3__16__treeINS_12__value_typeIiP6ClientEENS_19__map_value_compareIiS4_NS_4lessIiEELb1EEENS_9allocatorIS4_EEED1Ev, symObjAddr: 0xA108, symBinAddr: 0x10000E470, symSize: 0x2C }
  - { offsetInCU: 0x16AC9, offset: 0x16AC9, size: 0x8, addend: 0x0, symName: __ZNSt3__16__treeINS_12__value_typeIiP6ClientEENS_19__map_value_compareIiS4_NS_4lessIiEELb1EEENS_9allocatorIS4_EEED2Ev, symObjAddr: 0xA134, symBinAddr: 0x10000E49C, symSize: 0x38 }
  - { offsetInCU: 0x16AF5, offset: 0x16AF5, size: 0x8, addend: 0x0, symName: __ZNSt3__16__treeINS_12__value_typeIiP6ClientEENS_19__map_value_compareIiS4_NS_4lessIiEELb1EEENS_9allocatorIS4_EEE7destroyEPNS_11__tree_nodeIS4_PvEE, symObjAddr: 0xA16C, symBinAddr: 0x10000E4D4, symSize: 0x148 }
  - { offsetInCU: 0x16B4A, offset: 0x16B4A, size: 0x8, addend: 0x0, symName: __ZNKSt3__16__treeINS_12__value_typeIiP6ClientEENS_19__map_value_compareIiS4_NS_4lessIiEELb1EEENS_9allocatorIS4_EEE6__rootB8ue170006Ev, symObjAddr: 0xA2B4, symBinAddr: 0x10000E61C, symSize: 0x6C }
  - { offsetInCU: 0x16B70, offset: 0x16B70, size: 0x8, addend: 0x0, symName: __ZNSt3__16__treeINS_12__value_typeIiP6ClientEENS_19__map_value_compareIiS4_NS_4lessIiEELb1EEENS_9allocatorIS4_EEE12__node_allocB8ue170006Ev, symObjAddr: 0xA320, symBinAddr: 0x10000E688, symSize: 0x28 }
  - { offsetInCU: 0x16B96, offset: 0x16B96, size: 0x8, addend: 0x0, symName: __ZNSt3__116allocator_traitsINS_9allocatorINS_11__tree_nodeINS_12__value_typeIiP6ClientEEPvEEEEE7destroyB8ue170006INS_4pairIKiS5_EEvvEEvRS9_PT_, symObjAddr: 0xA348, symBinAddr: 0x10000E6B0, symSize: 0x14 }
  - { offsetInCU: 0x16BD0, offset: 0x16BD0, size: 0x8, addend: 0x0, symName: __ZNSt3__122__tree_key_value_typesINS_12__value_typeIiP6ClientEEE9__get_ptrB8ue170006ERS4_, symObjAddr: 0xA35C, symBinAddr: 0x10000E6C4, symSize: 0x24 }
  - { offsetInCU: 0x16BF4, offset: 0x16BF4, size: 0x8, addend: 0x0, symName: __ZNSt3__116allocator_traitsINS_9allocatorINS_11__tree_nodeINS_12__value_typeIiP6ClientEEPvEEEEE10deallocateB8ue170006ERS9_PS8_m, symObjAddr: 0xA380, symBinAddr: 0x10000E6E8, symSize: 0x34 }
  - { offsetInCU: 0x16C36, offset: 0x16C36, size: 0x8, addend: 0x0, symName: __ZNSt3__117__compressed_pairINS_15__tree_end_nodeIPNS_16__tree_node_baseIPvEEEENS_9allocatorINS_11__tree_nodeINS_12__value_typeIiP6ClientEES3_EEEEE6secondB8ue170006Ev, symObjAddr: 0xA3B4, symBinAddr: 0x10000E71C, symSize: 0x24 }
  - { offsetInCU: 0x16C5C, offset: 0x16C5C, size: 0x8, addend: 0x0, symName: __ZNSt3__122__compressed_pair_elemINS_9allocatorINS_11__tree_nodeINS_12__value_typeIiP6ClientEEPvEEEELi1ELb1EE5__getB8ue170006Ev, symObjAddr: 0xA3D8, symBinAddr: 0x10000E740, symSize: 0x14 }
  - { offsetInCU: 0x16C82, offset: 0x16C82, size: 0x8, addend: 0x0, symName: __ZNSt3__112__value_typeIiP6ClientE11__get_valueB8ue170006Ev, symObjAddr: 0xA3EC, symBinAddr: 0x10000E754, symSize: 0x14 }
  - { offsetInCU: 0x16CA8, offset: 0x16CA8, size: 0x8, addend: 0x0, symName: __ZNSt3__19allocatorINS_11__tree_nodeINS_12__value_typeIiP6ClientEEPvEEE10deallocateB8ue170006EPS7_m, symObjAddr: 0xA400, symBinAddr: 0x10000E768, symSize: 0x80 }
  - { offsetInCU: 0x16CEA, offset: 0x16CEA, size: 0x8, addend: 0x0, symName: __ZNKSt3__16__treeINS_12__value_typeIiP6ClientEENS_19__map_value_compareIiS4_NS_4lessIiEELb1EEENS_9allocatorIS4_EEE10__end_nodeB8ue170006Ev, symObjAddr: 0xA480, symBinAddr: 0x10000E7E8, symSize: 0x2C }
  - { offsetInCU: 0x16D10, offset: 0x16D10, size: 0x8, addend: 0x0, symName: __ZNKSt3__117__compressed_pairINS_15__tree_end_nodeIPNS_16__tree_node_baseIPvEEEENS_9allocatorINS_11__tree_nodeINS_12__value_typeIiP6ClientEES3_EEEEE5firstB8ue170006Ev, symObjAddr: 0xA4AC, symBinAddr: 0x10000E814, symSize: 0x24 }
  - { offsetInCU: 0x16D36, offset: 0x16D36, size: 0x8, addend: 0x0, symName: __ZN12IrcExceptionC2ERKNSt3__112basic_stringIcNS0_11char_traitsIcEENS0_9allocatorIcEEEE, symObjAddr: 0xA4D0, symBinAddr: 0x10000E838, symSize: 0xC0 }
  - { offsetInCU: 0x16D6E, offset: 0x16D6E, size: 0x8, addend: 0x0, symName: __ZNSt9exceptionC2B8ue170006Ev, symObjAddr: 0xA590, symBinAddr: 0x10000E8F8, symSize: 0x74 }
  - { offsetInCU: 0x16D98, offset: 0x16D98, size: 0x8, addend: 0x0, symName: __ZN12IrcExceptionD0Ev, symObjAddr: 0xA604, symBinAddr: 0x10000E96C, symSize: 0x30 }
  - { offsetInCU: 0x16DC2, offset: 0x16DC2, size: 0x8, addend: 0x0, symName: __ZNK12IrcException4whatEv, symObjAddr: 0xA634, symBinAddr: 0x10000E99C, symSize: 0x28 }
  - { offsetInCU: 0x16DE8, offset: 0x16DE8, size: 0x8, addend: 0x0, symName: __ZN12IrcExceptionD2Ev, symObjAddr: 0xA65C, symBinAddr: 0x10000E9C4, symSize: 0xBC }
  - { offsetInCU: 0x16E12, offset: 0x16E12, size: 0x8, addend: 0x0, symName: __ZN12ParseMessageD2Ev, symObjAddr: 0xA718, symBinAddr: 0x10000EA80, symSize: 0x114 }
  - { offsetInCU: 0x16E3E, offset: 0x16E3E, size: 0x8, addend: 0x0, symName: __ZN6ClientD2Ev, symObjAddr: 0xA82C, symBinAddr: 0x10000EB94, symSize: 0xE0 }
  - { offsetInCU: 0x16E6A, offset: 0x16E6A, size: 0x8, addend: 0x0, symName: __ZN6ServerD2Ev, symObjAddr: 0xA90C, symBinAddr: 0x10000EC74, symSize: 0x148 }
  - { offsetInCU: 0x16E96, offset: 0x16E96, size: 0x8, addend: 0x0, symName: __ZNSt3__16vectorI6pollfdNS_9allocatorIS1_EEED1B8ue170006Ev, symObjAddr: 0xAA54, symBinAddr: 0x10000EDBC, symSize: 0x2C }
  - { offsetInCU: 0x16EC0, offset: 0x16EC0, size: 0x8, addend: 0x0, symName: __ZNSt3__16vectorI6pollfdNS_9allocatorIS1_EEED2B8ue170006Ev, symObjAddr: 0xAA80, symBinAddr: 0x10000EDE8, symSize: 0x1E0 }
  - { offsetInCU: 0x16EEB, offset: 0x16EEB, size: 0x8, addend: 0x0, symName: __ZNSt3__16vectorI6pollfdNS_9allocatorIS1_EEE16__destroy_vectorC1B8ue170006ERS4_, symObjAddr: 0xAC60, symBinAddr: 0x10000EFC8, symSize: 0x34 }
  - { offsetInCU: 0x16F24, offset: 0x16F24, size: 0x8, addend: 0x0, symName: __ZNSt3__16vectorI6pollfdNS_9allocatorIS1_EEE16__destroy_vectorclB8ue170006Ev, symObjAddr: 0xAC94, symBinAddr: 0x10000EFFC, symSize: 0x228 }
  - { offsetInCU: 0x16F4A, offset: 0x16F4A, size: 0x8, addend: 0x0, symName: __ZNSt3__16vectorI6pollfdNS_9allocatorIS1_EEE16__destroy_vectorC2B8ue170006ERS4_, symObjAddr: 0xAEBC, symBinAddr: 0x10000F224, symSize: 0x70 }
  - { offsetInCU: 0x16F83, offset: 0x16F83, size: 0x8, addend: 0x0, symName: __ZNSt3__16vectorI6pollfdNS_9allocatorIS1_EEE7__clearB8ue170006Ev, symObjAddr: 0xAF2C, symBinAddr: 0x10000F294, symSize: 0x64 }
  - { offsetInCU: 0x16FA9, offset: 0x16FA9, size: 0x8, addend: 0x0, symName: __ZNKSt3__16vectorI6pollfdNS_9allocatorIS1_EEE17__annotate_deleteB8ue170006Ev, symObjAddr: 0xAF90, symBinAddr: 0x10000F2F8, symSize: 0xE0 }
  - { offsetInCU: 0x16FCF, offset: 0x16FCF, size: 0x8, addend: 0x0, symName: __ZNSt3__116allocator_traitsINS_9allocatorI6pollfdEEE10deallocateB8ue170006ERS3_PS2_m, symObjAddr: 0xB070, symBinAddr: 0x10000F3D8, symSize: 0x34 }
  - { offsetInCU: 0x17011, offset: 0x17011, size: 0x8, addend: 0x0, symName: __ZNSt3__16vectorI6pollfdNS_9allocatorIS1_EEE7__allocB8ue170006Ev, symObjAddr: 0xB0A4, symBinAddr: 0x10000F40C, symSize: 0x28 }
  - { offsetInCU: 0x17037, offset: 0x17037, size: 0x8, addend: 0x0, symName: __ZNKSt3__16vectorI6pollfdNS_9allocatorIS1_EEE8capacityB8ue170006Ev, symObjAddr: 0xB0CC, symBinAddr: 0x10000F434, symSize: 0xBC }
  - { offsetInCU: 0x1705D, offset: 0x1705D, size: 0x8, addend: 0x0, symName: __ZNSt3__16vectorI6pollfdNS_9allocatorIS1_EEE22__base_destruct_at_endB8ue170006EPS1_, symObjAddr: 0xB188, symBinAddr: 0x10000F4F0, symSize: 0x128 }
  - { offsetInCU: 0x170A1, offset: 0x170A1, size: 0x8, addend: 0x0, symName: __ZNSt3__116allocator_traitsINS_9allocatorI6pollfdEEE7destroyB8ue170006IS2_vEEvRS3_PT_, symObjAddr: 0xB2B0, symBinAddr: 0x10000F618, symSize: 0x2C }
  - { offsetInCU: 0x170DE, offset: 0x170DE, size: 0x8, addend: 0x0, symName: __ZNSt3__19allocatorI6pollfdE7destroyB8ue170006EPS1_, symObjAddr: 0xB2F0, symBinAddr: 0x10000F658, symSize: 0x14 }
  - { offsetInCU: 0x17112, offset: 0x17112, size: 0x8, addend: 0x0, symName: __ZNKSt3__16vectorI6pollfdNS_9allocatorIS1_EEE31__annotate_contiguous_containerEPKvS6_S6_S6_, symObjAddr: 0xB304, symBinAddr: 0x10000F66C, symSize: 0x64 }
  - { offsetInCU: 0x17174, offset: 0x17174, size: 0x8, addend: 0x0, symName: __ZNKSt3__16vectorI6pollfdNS_9allocatorIS1_EEE4dataB8ue170006Ev, symObjAddr: 0xB368, symBinAddr: 0x10000F6D0, symSize: 0x64 }
  - { offsetInCU: 0x1719A, offset: 0x1719A, size: 0x8, addend: 0x0, symName: __ZNSt3__19allocatorI6pollfdE10deallocateB8ue170006EPS1_m, symObjAddr: 0xB3CC, symBinAddr: 0x10000F734, symSize: 0x7C }
  - { offsetInCU: 0x171DC, offset: 0x171DC, size: 0x8, addend: 0x0, symName: __ZNSt3__117__compressed_pairIP6pollfdNS_9allocatorIS1_EEE6secondB8ue170006Ev, symObjAddr: 0xB448, symBinAddr: 0x10000F7B0, symSize: 0x24 }
  - { offsetInCU: 0x17202, offset: 0x17202, size: 0x8, addend: 0x0, symName: __ZNSt3__122__compressed_pair_elemINS_9allocatorI6pollfdEELi1ELb1EE5__getB8ue170006Ev, symObjAddr: 0xB46C, symBinAddr: 0x10000F7D4, symSize: 0x14 }
  - { offsetInCU: 0x17228, offset: 0x17228, size: 0x8, addend: 0x0, symName: __ZNKSt3__16vectorI6pollfdNS_9allocatorIS1_EEE9__end_capB8ue170006Ev, symObjAddr: 0xB480, symBinAddr: 0x10000F7E8, symSize: 0x28 }
  - { offsetInCU: 0x1724E, offset: 0x1724E, size: 0x8, addend: 0x0, symName: __ZNKSt3__117__compressed_pairIP6pollfdNS_9allocatorIS1_EEE5firstB8ue170006Ev, symObjAddr: 0xB4A8, symBinAddr: 0x10000F810, symSize: 0x24 }
  - { offsetInCU: 0x17274, offset: 0x17274, size: 0x8, addend: 0x0, symName: __ZNKSt3__122__compressed_pair_elemIP6pollfdLi0ELb0EE5__getB8ue170006Ev, symObjAddr: 0xB4CC, symBinAddr: 0x10000F834, symSize: 0x14 }
  - { offsetInCU: 0x1729A, offset: 0x1729A, size: 0x8, addend: 0x0, symName: __ZNKSt3__112basic_stringIcNS_11char_traitsIcEENS_9allocatorIcEEE4dataB8ue170006Ev, symObjAddr: 0xB4E0, symBinAddr: 0x10000F848, symSize: 0x28 }
  - { offsetInCU: 0x172C0, offset: 0x172C0, size: 0x8, addend: 0x0, symName: __ZNKSt3__112basic_stringIcNS_11char_traitsIcEENS_9allocatorIcEEE13__get_pointerB8ue170006Ev, symObjAddr: 0xB51C, symBinAddr: 0x10000F884, symSize: 0x54 }
  - { offsetInCU: 0x172E6, offset: 0x172E6, size: 0x8, addend: 0x0, symName: __ZNKSt3__112basic_stringIcNS_11char_traitsIcEENS_9allocatorIcEEE9__is_longB8ue170006Ev, symObjAddr: 0xB570, symBinAddr: 0x10000F8D8, symSize: 0xE0 }
  - { offsetInCU: 0x1730C, offset: 0x1730C, size: 0x8, addend: 0x0, symName: __ZNKSt3__112basic_stringIcNS_11char_traitsIcEENS_9allocatorIcEEE18__get_long_pointerB8ue170006Ev, symObjAddr: 0xB650, symBinAddr: 0x10000F9B8, symSize: 0x6C }
  - { offsetInCU: 0x17332, offset: 0x17332, size: 0x8, addend: 0x0, symName: __ZNKSt3__112basic_stringIcNS_11char_traitsIcEENS_9allocatorIcEEE19__get_short_pointerB8ue170006Ev, symObjAddr: 0xB6BC, symBinAddr: 0x10000FA24, symSize: 0x28 }
  - { offsetInCU: 0x17358, offset: 0x17358, size: 0x8, addend: 0x0, symName: __ZNKSt3__117__compressed_pairINS_12basic_stringIcNS_11char_traitsIcEENS_9allocatorIcEEE5__repES5_E5firstB8ue170006Ev, symObjAddr: 0xB6E4, symBinAddr: 0x10000FA4C, symSize: 0x24 }
  - { offsetInCU: 0x1737E, offset: 0x1737E, size: 0x8, addend: 0x0, symName: __ZNKSt3__122__compressed_pair_elemINS_12basic_stringIcNS_11char_traitsIcEENS_9allocatorIcEEE5__repELi0ELb0EE5__getB8ue170006Ev, symObjAddr: 0xB708, symBinAddr: 0x10000FA70, symSize: 0x14 }
  - { offsetInCU: 0x173A4, offset: 0x173A4, size: 0x8, addend: 0x0, symName: __ZNSt3__114pointer_traitsIPKcE10pointer_toB8ue170006ERS1_, symObjAddr: 0xB71C, symBinAddr: 0x10000FA84, symSize: 0x14 }
  - { offsetInCU: 0x173C7, offset: 0x173C7, size: 0x8, addend: 0x0, symName: __ZNSt3__16vectorINS_12basic_stringIcNS_11char_traitsIcEENS_9allocatorIcEEEENS4_IS6_EEEC2B8ue170006Ev, symObjAddr: 0xB730, symBinAddr: 0x10000FA98, symSize: 0x2D4 }
  - { offsetInCU: 0x173F2, offset: 0x173F2, size: 0x8, addend: 0x0, symName: __ZNSt3__117__compressed_pairIPNS_12basic_stringIcNS_11char_traitsIcEENS_9allocatorIcEEEENS4_IS6_EEEC1B8ue170006IDnNS_18__default_init_tagEEEOT_OT0_, symObjAddr: 0xBA04, symBinAddr: 0x10000FD6C, symSize: 0x3C }
  - { offsetInCU: 0x1744A, offset: 0x1744A, size: 0x8, addend: 0x0, symName: __ZNSt3__117__compressed_pairIPNS_12basic_stringIcNS_11char_traitsIcEENS_9allocatorIcEEEENS4_IS6_EEEC2B8ue170006IDnNS_18__default_init_tagEEEOT_OT0_, symObjAddr: 0xBA40, symBinAddr: 0x10000FDA8, symSize: 0x40 }
  - { offsetInCU: 0x174A2, offset: 0x174A2, size: 0x8, addend: 0x0, symName: __ZNSt3__122__compressed_pair_elemIPNS_12basic_stringIcNS_11char_traitsIcEENS_9allocatorIcEEEELi0ELb0EEC2B8ue170006IDnvEEOT_, symObjAddr: 0xBA80, symBinAddr: 0x10000FDE8, symSize: 0x64 }
  - { offsetInCU: 0x174E4, offset: 0x174E4, size: 0x8, addend: 0x0, symName: __ZNSt3__122__compressed_pair_elemINS_9allocatorINS_12basic_stringIcNS_11char_traitsIcEENS1_IcEEEEEELi1ELb1EEC2B8ue170006ENS_18__default_init_tagE, symObjAddr: 0xBAE4, symBinAddr: 0x10000FE4C, symSize: 0x2C }
  - { offsetInCU: 0x17519, offset: 0x17519, size: 0x8, addend: 0x0, symName: __ZNSt3__19allocatorINS_12basic_stringIcNS_11char_traitsIcEENS0_IcEEEEEC2B8ue170006Ev, symObjAddr: 0xBB10, symBinAddr: 0x10000FE78, symSize: 0x2C }
  - { offsetInCU: 0x17543, offset: 0x17543, size: 0x8, addend: 0x0, symName: __ZNSt3__116__non_trivial_ifILb1ENS_9allocatorINS_12basic_stringIcNS_11char_traitsIcEENS1_IcEEEEEEEC2B8ue170006Ev, symObjAddr: 0xBB3C, symBinAddr: 0x10000FEA4, symSize: 0x14 }
  - { offsetInCU: 0x1756D, offset: 0x1756D, size: 0x8, addend: 0x0, symName: __ZNSt3__16vectorINS_12basic_stringIcNS_11char_traitsIcEENS_9allocatorIcEEEENS4_IS6_EEED2B8ue170006Ev, symObjAddr: 0xBB50, symBinAddr: 0x10000FEB8, symSize: 0x1E0 }
  - { offsetInCU: 0x17598, offset: 0x17598, size: 0x8, addend: 0x0, symName: __ZNSt3__16vectorINS_12basic_stringIcNS_11char_traitsIcEENS_9allocatorIcEEEENS4_IS6_EEE16__destroy_vectorC1B8ue170006ERS8_, symObjAddr: 0xBD30, symBinAddr: 0x100010098, symSize: 0x34 }
  - { offsetInCU: 0x175D1, offset: 0x175D1, size: 0x8, addend: 0x0, symName: __ZNSt3__16vectorINS_12basic_stringIcNS_11char_traitsIcEENS_9allocatorIcEEEENS4_IS6_EEE16__destroy_vectorclB8ue170006Ev, symObjAddr: 0xBD64, symBinAddr: 0x1000100CC, symSize: 0x228 }
  - { offsetInCU: 0x175F7, offset: 0x175F7, size: 0x8, addend: 0x0, symName: __ZNSt3__16vectorINS_12basic_stringIcNS_11char_traitsIcEENS_9allocatorIcEEEENS4_IS6_EEE16__destroy_vectorC2B8ue170006ERS8_, symObjAddr: 0xBF8C, symBinAddr: 0x1000102F4, symSize: 0x70 }
  - { offsetInCU: 0x17630, offset: 0x17630, size: 0x8, addend: 0x0, symName: __ZNSt3__16vectorINS_12basic_stringIcNS_11char_traitsIcEENS_9allocatorIcEEEENS4_IS6_EEE7__clearB8ue170006Ev, symObjAddr: 0xBFFC, symBinAddr: 0x100010364, symSize: 0x64 }
  - { offsetInCU: 0x17656, offset: 0x17656, size: 0x8, addend: 0x0, symName: __ZNKSt3__16vectorINS_12basic_stringIcNS_11char_traitsIcEENS_9allocatorIcEEEENS4_IS6_EEE17__annotate_deleteB8ue170006Ev, symObjAddr: 0xC060, symBinAddr: 0x1000103C8, symSize: 0xFC }
  - { offsetInCU: 0x1767C, offset: 0x1767C, size: 0x8, addend: 0x0, symName: __ZNSt3__116allocator_traitsINS_9allocatorINS_12basic_stringIcNS_11char_traitsIcEENS1_IcEEEEEEE10deallocateB8ue170006ERS7_PS6_m, symObjAddr: 0xC15C, symBinAddr: 0x1000104C4, symSize: 0x34 }
  - { offsetInCU: 0x176BE, offset: 0x176BE, size: 0x8, addend: 0x0, symName: __ZNSt3__16vectorINS_12basic_stringIcNS_11char_traitsIcEENS_9allocatorIcEEEENS4_IS6_EEE7__allocB8ue170006Ev, symObjAddr: 0xC190, symBinAddr: 0x1000104F8, symSize: 0x28 }
  - { offsetInCU: 0x176E4, offset: 0x176E4, size: 0x8, addend: 0x0, symName: __ZNKSt3__16vectorINS_12basic_stringIcNS_11char_traitsIcEENS_9allocatorIcEEEENS4_IS6_EEE8capacityB8ue170006Ev, symObjAddr: 0xC1B8, symBinAddr: 0x100010520, symSize: 0xBC }
  - { offsetInCU: 0x1770A, offset: 0x1770A, size: 0x8, addend: 0x0, symName: __ZNSt3__16vectorINS_12basic_stringIcNS_11char_traitsIcEENS_9allocatorIcEEEENS4_IS6_EEE22__base_destruct_at_endB8ue170006EPS6_, symObjAddr: 0xC274, symBinAddr: 0x1000105DC, symSize: 0x128 }
  - { offsetInCU: 0x1774E, offset: 0x1774E, size: 0x8, addend: 0x0, symName: __ZNSt3__116allocator_traitsINS_9allocatorINS_12basic_stringIcNS_11char_traitsIcEENS1_IcEEEEEEE7destroyB8ue170006IS6_vEEvRS7_PT_, symObjAddr: 0xC39C, symBinAddr: 0x100010704, symSize: 0x2C }
  - { offsetInCU: 0x1778B, offset: 0x1778B, size: 0x8, addend: 0x0, symName: __ZNSt3__19allocatorINS_12basic_stringIcNS_11char_traitsIcEENS0_IcEEEEE7destroyB8ue170006EPS5_, symObjAddr: 0xC3DC, symBinAddr: 0x100010744, symSize: 0x28 }
  - { offsetInCU: 0x177BF, offset: 0x177BF, size: 0x8, addend: 0x0, symName: __ZNKSt3__16vectorINS_12basic_stringIcNS_11char_traitsIcEENS_9allocatorIcEEEENS4_IS6_EEE31__annotate_contiguous_containerEPKvSA_SA_SA_, symObjAddr: 0xC404, symBinAddr: 0x10001076C, symSize: 0x64 }
  - { offsetInCU: 0x17821, offset: 0x17821, size: 0x8, addend: 0x0, symName: __ZNKSt3__16vectorINS_12basic_stringIcNS_11char_traitsIcEENS_9allocatorIcEEEENS4_IS6_EEE4dataB8ue170006Ev, symObjAddr: 0xC468, symBinAddr: 0x1000107D0, symSize: 0x64 }
  - { offsetInCU: 0x17847, offset: 0x17847, size: 0x8, addend: 0x0, symName: __ZNSt3__19allocatorINS_12basic_stringIcNS_11char_traitsIcEENS0_IcEEEEE10deallocateB8ue170006EPS5_m, symObjAddr: 0xC4CC, symBinAddr: 0x100010834, symSize: 0x80 }
  - { offsetInCU: 0x17889, offset: 0x17889, size: 0x8, addend: 0x0, symName: __ZNSt3__117__compressed_pairIPNS_12basic_stringIcNS_11char_traitsIcEENS_9allocatorIcEEEENS4_IS6_EEE6secondB8ue170006Ev, symObjAddr: 0xC54C, symBinAddr: 0x1000108B4, symSize: 0x24 }
  - { offsetInCU: 0x178AF, offset: 0x178AF, size: 0x8, addend: 0x0, symName: __ZNSt3__122__compressed_pair_elemINS_9allocatorINS_12basic_stringIcNS_11char_traitsIcEENS1_IcEEEEEELi1ELb1EE5__getB8ue170006Ev, symObjAddr: 0xC570, symBinAddr: 0x1000108D8, symSize: 0x14 }
  - { offsetInCU: 0x178D5, offset: 0x178D5, size: 0x8, addend: 0x0, symName: __ZNKSt3__16vectorINS_12basic_stringIcNS_11char_traitsIcEENS_9allocatorIcEEEENS4_IS6_EEE9__end_capB8ue170006Ev, symObjAddr: 0xC584, symBinAddr: 0x1000108EC, symSize: 0x28 }
  - { offsetInCU: 0x178FB, offset: 0x178FB, size: 0x8, addend: 0x0, symName: __ZNKSt3__117__compressed_pairIPNS_12basic_stringIcNS_11char_traitsIcEENS_9allocatorIcEEEENS4_IS6_EEE5firstB8ue170006Ev, symObjAddr: 0xC5AC, symBinAddr: 0x100010914, symSize: 0x24 }
  - { offsetInCU: 0x17921, offset: 0x17921, size: 0x8, addend: 0x0, symName: __ZNKSt3__122__compressed_pair_elemIPNS_12basic_stringIcNS_11char_traitsIcEENS_9allocatorIcEEEELi0ELb0EE5__getB8ue170006Ev, symObjAddr: 0xC5D0, symBinAddr: 0x100010938, symSize: 0x14 }
  - { offsetInCU: 0x17947, offset: 0x17947, size: 0x8, addend: 0x0, symName: __ZNSt3__112basic_stringIcNS_11char_traitsIcEENS_9allocatorIcEEEC2B8ue170006ILi0EEEPKc, symObjAddr: 0xC5E4, symBinAddr: 0x10001094C, symSize: 0x210 }
  - { offsetInCU: 0x17988, offset: 0x17988, size: 0x8, addend: 0x0, symName: __ZNSt3__111char_traitsIcE6lengthB8ue170006EPKc, symObjAddr: 0xC7F4, symBinAddr: 0x100010B5C, symSize: 0x54 }
  - { offsetInCU: 0x179C9, offset: 0x179C9, size: 0x8, addend: 0x0, symName: __ZNKSt3__113basic_ostreamIcNS_11char_traitsIcEEE6sentrycvbB8ue170006Ev, symObjAddr: 0xCFB8, symBinAddr: 0x100011320, symSize: 0x88 }
  - { offsetInCU: 0x179EF, offset: 0x179EF, size: 0x8, addend: 0x0, symName: __ZNSt3__119ostreambuf_iteratorIcNS_11char_traitsIcEEEC1B8ue170006ERNS_13basic_ostreamIcS2_EE, symObjAddr: 0xD7B4, symBinAddr: 0x100011B1C, symSize: 0x34 }
  - { offsetInCU: 0x17A27, offset: 0x17A27, size: 0x8, addend: 0x0, symName: __ZNKSt3__18ios_base5flagsB8ue170006Ev, symObjAddr: 0xD7E8, symBinAddr: 0x100011B50, symSize: 0x8C }
  - { offsetInCU: 0x17A4F, offset: 0x17A4F, size: 0x8, addend: 0x0, symName: __ZNKSt3__19basic_iosIcNS_11char_traitsIcEEE4fillB8ue170006Ev, symObjAddr: 0xD874, symBinAddr: 0x100011BDC, symSize: 0x198 }
  - { offsetInCU: 0x17A77, offset: 0x17A77, size: 0x8, addend: 0x0, symName: __ZNKSt3__119ostreambuf_iteratorIcNS_11char_traitsIcEEE6failedB8ue170006Ev, symObjAddr: 0xDA0C, symBinAddr: 0x100011D74, symSize: 0x6C }
  - { offsetInCU: 0x17A9D, offset: 0x17A9D, size: 0x8, addend: 0x0, symName: __ZNSt3__19basic_iosIcNS_11char_traitsIcEEE8setstateB8ue170006Ej, symObjAddr: 0xDA78, symBinAddr: 0x100011DE0, symSize: 0x2C }
  - { offsetInCU: 0x17AD2, offset: 0x17AD2, size: 0x8, addend: 0x0, symName: __ZNKSt3__18ios_base5widthB8ue170006Ev, symObjAddr: 0xDAA4, symBinAddr: 0x100011E0C, symSize: 0x64 }
  - { offsetInCU: 0x17AFA, offset: 0x17AFA, size: 0x8, addend: 0x0, symName: __ZNSt3__115basic_streambufIcNS_11char_traitsIcEEE5sputnB8ue170006EPKcl, symObjAddr: 0xDB08, symBinAddr: 0x100011E70, symSize: 0xC8 }
  - { offsetInCU: 0x17B3C, offset: 0x17B3C, size: 0x8, addend: 0x0, symName: __ZNSt3__112basic_stringIcNS_11char_traitsIcEENS_9allocatorIcEEEC1B8ue170006Emc, symObjAddr: 0xDBD0, symBinAddr: 0x100011F38, symSize: 0x3C }
  - { offsetInCU: 0x17B84, offset: 0x17B84, size: 0x8, addend: 0x0, symName: __ZNSt3__18ios_base5widthB8ue170006El, symObjAddr: 0xDC0C, symBinAddr: 0x100011F74, symSize: 0xB8 }
  - { offsetInCU: 0x17BCA, offset: 0x17BCA, size: 0x8, addend: 0x0, symName: __ZNSt3__112basic_stringIcNS_11char_traitsIcEENS_9allocatorIcEEEC2B8ue170006Emc, symObjAddr: 0xDCC4, symBinAddr: 0x10001202C, symSize: 0x204 }
  - { offsetInCU: 0x17C15, offset: 0x17C15, size: 0x8, addend: 0x0, symName: __ZNSt3__119ostreambuf_iteratorIcNS_11char_traitsIcEEEC2B8ue170006ERNS_13basic_ostreamIcS2_EE, symObjAddr: 0xDEC8, symBinAddr: 0x100012230, symSize: 0x120 }
  - { offsetInCU: 0x17C4D, offset: 0x17C4D, size: 0x8, addend: 0x0, symName: __ZNKSt3__19basic_iosIcNS_11char_traitsIcEEE5rdbufB8ue170006Ev, symObjAddr: 0xDFE8, symBinAddr: 0x100012350, symSize: 0x24 }
  - { offsetInCU: 0x17C75, offset: 0x17C75, size: 0x8, addend: 0x0, symName: __ZNKSt3__18ios_base5rdbufB8ue170006Ev, symObjAddr: 0xE00C, symBinAddr: 0x100012374, symSize: 0x64 }
  - { offsetInCU: 0x17C9B, offset: 0x17C9B, size: 0x8, addend: 0x0, symName: __ZNSt3__111char_traitsIcE11eq_int_typeB8ue170006Eii, symObjAddr: 0xE070, symBinAddr: 0x1000123D8, symSize: 0x28 }
  - { offsetInCU: 0x17CCE, offset: 0x17CCE, size: 0x8, addend: 0x0, symName: __ZNSt3__111char_traitsIcE3eofB8ue170006Ev, symObjAddr: 0xE098, symBinAddr: 0x100012400, symSize: 0x8 }
  - { offsetInCU: 0x17CE2, offset: 0x17CE2, size: 0x8, addend: 0x0, symName: __ZNKSt3__19basic_iosIcNS_11char_traitsIcEEE5widenB8ue170006Ec, symObjAddr: 0xE0A0, symBinAddr: 0x100012408, symSize: 0x2B8 }
  - { offsetInCU: 0x17D4D, offset: 0x17D4D, size: 0x8, addend: 0x0, symName: __ZNKSt3__15ctypeIcE5widenB8ue170006Ec, symObjAddr: 0xE384, symBinAddr: 0x1000126EC, symSize: 0xBC }
  - { offsetInCU: 0x17D82, offset: 0x17D82, size: 0x8, addend: 0x0, symName: __ZNSt3__18ios_base8setstateB8ue170006Ej, symObjAddr: 0xE440, symBinAddr: 0x1000127A8, symSize: 0x9C }
  - { offsetInCU: 0x17DB9, offset: 0x17DB9, size: 0x8, addend: 0x0, symName: __ZNSt3__16vectorI6pollfdNS_9allocatorIS1_EEE9__end_capB8ue170006Ev, symObjAddr: 0xE4DC, symBinAddr: 0x100012844, symSize: 0x28 }
  - { offsetInCU: 0x17DDF, offset: 0x17DDF, size: 0x8, addend: 0x0, symName: __ZNSt3__16vectorI6pollfdNS_9allocatorIS1_EEE22__construct_one_at_endB8ue170006IJRKS1_EEEvDpOT_, symObjAddr: 0xE504, symBinAddr: 0x10001286C, symSize: 0x380 }
  - { offsetInCU: 0x17E34, offset: 0x17E34, size: 0x8, addend: 0x0, symName: __ZNSt3__16vectorI6pollfdNS_9allocatorIS1_EEE21__push_back_slow_pathIRKS1_EEvOT_, symObjAddr: 0xE884, symBinAddr: 0x100012BEC, symSize: 0x3D4 }
  - { offsetInCU: 0x17E99, offset: 0x17E99, size: 0x8, addend: 0x0, symName: __ZNSt3__117__compressed_pairIP6pollfdNS_9allocatorIS1_EEE5firstB8ue170006Ev, symObjAddr: 0xEC58, symBinAddr: 0x100012FC0, symSize: 0x24 }
  - { offsetInCU: 0x17EBF, offset: 0x17EBF, size: 0x8, addend: 0x0, symName: __ZNSt3__122__compressed_pair_elemIP6pollfdLi0ELb0EE5__getB8ue170006Ev, symObjAddr: 0xEC7C, symBinAddr: 0x100012FE4, symSize: 0x14 }
  - { offsetInCU: 0x17EFE, offset: 0x17EFE, size: 0x8, addend: 0x0, symName: __ZNSt3__16vectorI6pollfdNS_9allocatorIS1_EEE21_ConstructTransactionC1B8ue170006ERS4_m, symObjAddr: 0xEC90, symBinAddr: 0x100012FF8, symSize: 0x3C }
  - { offsetInCU: 0x17F46, offset: 0x17F46, size: 0x8, addend: 0x0, symName: __ZNSt3__116allocator_traitsINS_9allocatorI6pollfdEEE9constructB8ue170006IS2_JRKS2_EvEEvRS3_PT_DpOT0_, symObjAddr: 0xECCC, symBinAddr: 0x100013034, symSize: 0x34 }
  - { offsetInCU: 0x17F9D, offset: 0x17F9D, size: 0x8, addend: 0x0, symName: __ZNSt3__16vectorI6pollfdNS_9allocatorIS1_EEE21_ConstructTransactionD1B8ue170006Ev, symObjAddr: 0xED00, symBinAddr: 0x100013068, symSize: 0x2C }
  - { offsetInCU: 0x17FC7, offset: 0x17FC7, size: 0x8, addend: 0x0, symName: __ZNSt3__16vectorI6pollfdNS_9allocatorIS1_EEE21_ConstructTransactionC2B8ue170006ERS4_m, symObjAddr: 0xED2C, symBinAddr: 0x100013094, symSize: 0x1D0 }
  - { offsetInCU: 0x1800F, offset: 0x1800F, size: 0x8, addend: 0x0, symName: __ZNKSt3__16vectorI6pollfdNS_9allocatorIS1_EEE19__annotate_increaseB8ue170006Em, symObjAddr: 0xEEFC, symBinAddr: 0x100013264, symSize: 0xEC }
  - { offsetInCU: 0x18044, offset: 0x18044, size: 0x8, addend: 0x0, symName: __ZNSt3__19allocatorI6pollfdE9constructB8ue170006IS1_JRKS1_EEEvPT_DpOT0_, symObjAddr: 0xEFE8, symBinAddr: 0x100013350, symSize: 0x34 }
  - { offsetInCU: 0x1809A, offset: 0x1809A, size: 0x8, addend: 0x0, symName: __ZNSt3__16vectorI6pollfdNS_9allocatorIS1_EEE21_ConstructTransactionD2B8ue170006Ev, symObjAddr: 0xF01C, symBinAddr: 0x100013384, symSize: 0x278 }
  - { offsetInCU: 0x180C4, offset: 0x180C4, size: 0x8, addend: 0x0, symName: __ZNKSt3__16vectorI6pollfdNS_9allocatorIS1_EEE17__annotate_shrinkB8ue170006Em, symObjAddr: 0xF294, symBinAddr: 0x1000135FC, symSize: 0xDC }
  - { offsetInCU: 0x180F9, offset: 0x180F9, size: 0x8, addend: 0x0, symName: __ZNKSt3__16vectorI6pollfdNS_9allocatorIS1_EEE11__recommendB8ue170006Em, symObjAddr: 0xF370, symBinAddr: 0x1000136D8, symSize: 0x384 }
  - { offsetInCU: 0x18155, offset: 0x18155, size: 0x8, addend: 0x0, symName: __ZNSt3__114__split_bufferI6pollfdRNS_9allocatorIS1_EEEC1EmmS4_, symObjAddr: 0xF6F4, symBinAddr: 0x100013A5C, symSize: 0x44 }
  - { offsetInCU: 0x181AB, offset: 0x181AB, size: 0x8, addend: 0x0, symName: __ZNSt3__114__split_bufferI6pollfdRNS_9allocatorIS1_EEED1Ev, symObjAddr: 0xFCA4, symBinAddr: 0x10001400C, symSize: 0x2C }
  - { offsetInCU: 0x181D7, offset: 0x181D7, size: 0x8, addend: 0x0, symName: __ZNKSt3__16vectorI6pollfdNS_9allocatorIS1_EEE8max_sizeEv, symObjAddr: 0xFCD0, symBinAddr: 0x100014038, symSize: 0x328 }
  - { offsetInCU: 0x18200, offset: 0x18200, size: 0x8, addend: 0x0, symName: __ZNKSt3__16vectorI6pollfdNS_9allocatorIS1_EEE20__throw_length_errorB8ue170006Ev, symObjAddr: 0xFFF8, symBinAddr: 0x100014360, symSize: 0x20 }
  - { offsetInCU: 0x18230, offset: 0x18230, size: 0x8, addend: 0x0, symName: __ZNSt3__116allocator_traitsINS_9allocatorI6pollfdEEE8max_sizeB8ue170006IS3_vEEmRKS3_, symObjAddr: 0x10070, symBinAddr: 0x1000143D8, symSize: 0x24 }
  - { offsetInCU: 0x1825E, offset: 0x1825E, size: 0x8, addend: 0x0, symName: __ZNKSt3__16vectorI6pollfdNS_9allocatorIS1_EEE7__allocB8ue170006Ev, symObjAddr: 0x10094, symBinAddr: 0x1000143FC, symSize: 0x28 }
  - { offsetInCU: 0x18284, offset: 0x18284, size: 0x8, addend: 0x0, symName: __ZNSt3__114numeric_limitsIlE3maxB8ue170006Ev, symObjAddr: 0x100BC, symBinAddr: 0x100014424, symSize: 0x14 }
  - { offsetInCU: 0x182A2, offset: 0x182A2, size: 0x8, addend: 0x0, symName: __ZNKSt3__16__lessIvvEclB8ue170006ImmEEbRKT_RKT0_, symObjAddr: 0x102B8, symBinAddr: 0x100014620, symSize: 0xBC }
  - { offsetInCU: 0x182F6, offset: 0x182F6, size: 0x8, addend: 0x0, symName: __ZNKSt3__19allocatorI6pollfdE8max_sizeB8ue170006Ev, symObjAddr: 0x10374, symBinAddr: 0x1000146DC, symSize: 0x14 }
  - { offsetInCU: 0x1831C, offset: 0x1831C, size: 0x8, addend: 0x0, symName: __ZNKSt3__117__compressed_pairIP6pollfdNS_9allocatorIS1_EEE6secondB8ue170006Ev, symObjAddr: 0x10388, symBinAddr: 0x1000146F0, symSize: 0x24 }
  - { offsetInCU: 0x18342, offset: 0x18342, size: 0x8, addend: 0x0, symName: __ZNKSt3__122__compressed_pair_elemINS_9allocatorI6pollfdEELi1ELb1EE5__getB8ue170006Ev, symObjAddr: 0x103AC, symBinAddr: 0x100014714, symSize: 0x14 }
  - { offsetInCU: 0x18368, offset: 0x18368, size: 0x8, addend: 0x0, symName: __ZNSt3__123__libcpp_numeric_limitsIlLb1EE3maxB8ue170006Ev, symObjAddr: 0x103C0, symBinAddr: 0x100014728, symSize: 0x8 }
  - { offsetInCU: 0x1837C, offset: 0x1837C, size: 0x8, addend: 0x0, symName: __ZNSt12length_errorC1B8ue170006EPKc, symObjAddr: 0x10430, symBinAddr: 0x100014798, symSize: 0x34 }
  - { offsetInCU: 0x183B4, offset: 0x183B4, size: 0x8, addend: 0x0, symName: __ZNSt12length_errorC2B8ue170006EPKc, symObjAddr: 0x10464, symBinAddr: 0x1000147CC, symSize: 0x8C }
  - { offsetInCU: 0x183EC, offset: 0x183EC, size: 0x8, addend: 0x0, symName: __ZNSt3__114__split_bufferI6pollfdRNS_9allocatorIS1_EEEC2EmmS4_, symObjAddr: 0x106D8, symBinAddr: 0x100014A40, symSize: 0x520 }
  - { offsetInCU: 0x18468, offset: 0x18468, size: 0x8, addend: 0x0, symName: __ZNSt3__117__compressed_pairIP6pollfdRNS_9allocatorIS1_EEEC1B8ue170006IDnS5_EEOT_OT0_, symObjAddr: 0x10BF8, symBinAddr: 0x100014F60, symSize: 0x3C }
  - { offsetInCU: 0x184C0, offset: 0x184C0, size: 0x8, addend: 0x0, symName: __ZNSt3__114__split_bufferI6pollfdRNS_9allocatorIS1_EEE7__allocB8ue170006Ev, symObjAddr: 0x10EC0, symBinAddr: 0x100015228, symSize: 0x28 }
  - { offsetInCU: 0x184E6, offset: 0x184E6, size: 0x8, addend: 0x0, symName: __ZNSt3__114__split_bufferI6pollfdRNS_9allocatorIS1_EEE9__end_capB8ue170006Ev, symObjAddr: 0x10EE8, symBinAddr: 0x100015250, symSize: 0x28 }
  - { offsetInCU: 0x1850C, offset: 0x1850C, size: 0x8, addend: 0x0, symName: __ZNSt3__117__compressed_pairIP6pollfdRNS_9allocatorIS1_EEEC2B8ue170006IDnS5_EEOT_OT0_, symObjAddr: 0x10F10, symBinAddr: 0x100015278, symSize: 0x48 }
  - { offsetInCU: 0x18564, offset: 0x18564, size: 0x8, addend: 0x0, symName: __ZNSt3__122__compressed_pair_elemIRNS_9allocatorI6pollfdEELi1ELb0EEC2B8ue170006IS4_vEEOT_, symObjAddr: 0x10F58, symBinAddr: 0x1000152C0, symSize: 0x70 }
  - { offsetInCU: 0x185A6, offset: 0x185A6, size: 0x8, addend: 0x0, symName: __ZNSt3__19allocatorI6pollfdE8allocateB8ue170006Em, symObjAddr: 0x10FC8, symBinAddr: 0x100015330, symSize: 0x88 }
  - { offsetInCU: 0x185DA, offset: 0x185DA, size: 0x8, addend: 0x0, symName: __ZNSt3__117__compressed_pairIP6pollfdRNS_9allocatorIS1_EEE6secondB8ue170006Ev, symObjAddr: 0x11050, symBinAddr: 0x1000153B8, symSize: 0x28 }
  - { offsetInCU: 0x18600, offset: 0x18600, size: 0x8, addend: 0x0, symName: __ZNSt3__122__compressed_pair_elemIRNS_9allocatorI6pollfdEELi1ELb0EE5__getB8ue170006Ev, symObjAddr: 0x11078, symBinAddr: 0x1000153E0, symSize: 0x60 }
  - { offsetInCU: 0x18626, offset: 0x18626, size: 0x8, addend: 0x0, symName: __ZNSt3__117__compressed_pairIP6pollfdRNS_9allocatorIS1_EEE5firstB8ue170006Ev, symObjAddr: 0x110D8, symBinAddr: 0x100015440, symSize: 0x24 }
  - { offsetInCU: 0x1864C, offset: 0x1864C, size: 0x8, addend: 0x0, symName: __ZNSt3__116reverse_iteratorIP6pollfdEC1B8ue170006ES2_, symObjAddr: 0x1164C, symBinAddr: 0x1000159B4, symSize: 0x34 }
  - { offsetInCU: 0x18684, offset: 0x18684, size: 0x8, addend: 0x0, symName: __ZNKSt3__116reverse_iteratorIP6pollfdE4baseB8ue170006Ev, symObjAddr: 0x11680, symBinAddr: 0x1000159E8, symSize: 0x64 }
  - { offsetInCU: 0x186AA, offset: 0x186AA, size: 0x8, addend: 0x0, symName: __ZNKSt3__16vectorI6pollfdNS_9allocatorIS1_EEE14__annotate_newB8ue170006Em, symObjAddr: 0x11818, symBinAddr: 0x100015B80, symSize: 0xD4 }
  - { offsetInCU: 0x186DF, offset: 0x186DF, size: 0x8, addend: 0x0, symName: __ZNKSt3__116reverse_iteratorIP6pollfdEdeB8ue170006Ev, symObjAddr: 0x11998, symBinAddr: 0x100015D00, symSize: 0x74 }
  - { offsetInCU: 0x18713, offset: 0x18713, size: 0x8, addend: 0x0, symName: __ZNSt3__116reverse_iteratorIP6pollfdEppB8ue170006Ev, symObjAddr: 0x11A0C, symBinAddr: 0x100015D74, symSize: 0x6C }
  - { offsetInCU: 0x1873E, offset: 0x1873E, size: 0x8, addend: 0x0, symName: __ZNSt3__119__to_address_helperINS_16reverse_iteratorIP6pollfdEEvE6__callB8ue170006ERKS4_, symObjAddr: 0x11F28, symBinAddr: 0x100016290, symSize: 0x58 }
  - { offsetInCU: 0x18761, offset: 0x18761, size: 0x8, addend: 0x0, symName: __ZNKSt3__116reverse_iteratorIP6pollfdEptB8ue170006Ev, symObjAddr: 0x11F80, symBinAddr: 0x1000162E8, symSize: 0x24 }
  - { offsetInCU: 0x187AB, offset: 0x187AB, size: 0x8, addend: 0x0, symName: __ZNKSt3__111__move_loopINS_17_ClassicAlgPolicyEEclB8ue170006INS_16reverse_iteratorIP6pollfdEES7_S7_EENS_4pairIT_T1_EES9_T0_SA_, symObjAddr: 0x134B4, symBinAddr: 0x10001781C, symSize: 0x344 }
  - { offsetInCU: 0x18829, offset: 0x18829, size: 0x8, addend: 0x0, symName: __ZNSt3__18_IterOpsINS_17_ClassicAlgPolicyEE11__iter_moveB8ue170006IRNS_16reverse_iteratorIP6pollfdEEEENS_9enable_ifIXsr12is_referenceIDTdeclsr3stdE7declvalIRT_EEEEE5valueEDTclsr3stdE4movedeclsr3stdE7declvalISB_EEEEE4typeEOSA_, symObjAddr: 0x142EC, symBinAddr: 0x100018654, symSize: 0x28 }
  - { offsetInCU: 0x18855, offset: 0x18855, size: 0x8, addend: 0x0, symName: __ZNSt3__18_IterOpsINS_17_ClassicAlgPolicyEE25__validate_iter_referenceB8ue170006IRNS_16reverse_iteratorIP6pollfdEEEEvv, symObjAddr: 0x14314, symBinAddr: 0x10001867C, symSize: 0x4 }
  - { offsetInCU: 0x18873, offset: 0x18873, size: 0x8, addend: 0x0, symName: __ZNSt3__118__unwrap_iter_implINS_16reverse_iteratorIP6pollfdEELb0EE8__unwrapB8ue170006ES4_, symObjAddr: 0x14318, symBinAddr: 0x100018680, symSize: 0x274 }
  - { offsetInCU: 0x1889A, offset: 0x1889A, size: 0x8, addend: 0x0, symName: __ZNSt3__14pairINS_16reverse_iteratorIP6pollfdEES4_EC1B8ue170006ERKS4_S7_, symObjAddr: 0x1458C, symBinAddr: 0x1000188F4, symSize: 0x3C }
  - { offsetInCU: 0x188E0, offset: 0x188E0, size: 0x8, addend: 0x0, symName: __ZNSt3__14pairINS_16reverse_iteratorIP6pollfdEES4_EC2B8ue170006ERKS4_S7_, symObjAddr: 0x145C8, symBinAddr: 0x100018930, symSize: 0x54 }
  - { offsetInCU: 0x18926, offset: 0x18926, size: 0x8, addend: 0x0, symName: __ZNSt3__118__unwrap_iter_implINS_16reverse_iteratorIP6pollfdEELb0EE8__rewrapB8ue170006ES4_S4_, symObjAddr: 0x1461C, symBinAddr: 0x100018984, symSize: 0x2E0 }
  - { offsetInCU: 0x1895C, offset: 0x1895C, size: 0x8, addend: 0x0, symName: __ZNSt3__116reverse_iteratorIP6pollfdEC2B8ue170006ES2_, symObjAddr: 0x148FC, symBinAddr: 0x100018C64, symSize: 0xB8 }
  - { offsetInCU: 0x18994, offset: 0x18994, size: 0x8, addend: 0x0, symName: __ZNSt3__114__split_bufferI6pollfdRNS_9allocatorIS1_EEED2Ev, symObjAddr: 0x149B4, symBinAddr: 0x100018D1C, symSize: 0xEC }
  - { offsetInCU: 0x189C0, offset: 0x189C0, size: 0x8, addend: 0x0, symName: __ZNSt3__114__split_bufferI6pollfdRNS_9allocatorIS1_EEE5clearB8ue170006Ev, symObjAddr: 0x14AA0, symBinAddr: 0x100018E08, symSize: 0x68 }
  - { offsetInCU: 0x189E6, offset: 0x189E6, size: 0x8, addend: 0x0, symName: __ZNKSt3__114__split_bufferI6pollfdRNS_9allocatorIS1_EEE8capacityB8ue170006Ev, symObjAddr: 0x14B08, symBinAddr: 0x100018E70, symSize: 0xBC }
  - { offsetInCU: 0x18A0C, offset: 0x18A0C, size: 0x8, addend: 0x0, symName: __ZNSt3__114__split_bufferI6pollfdRNS_9allocatorIS1_EEE17__destruct_at_endB8ue170006EPS1_, symObjAddr: 0x14BC4, symBinAddr: 0x100018F2C, symSize: 0x2C }
  - { offsetInCU: 0x18A40, offset: 0x18A40, size: 0x8, addend: 0x0, symName: __ZNSt3__114__split_bufferI6pollfdRNS_9allocatorIS1_EEE17__destruct_at_endB8ue170006EPS1_NS_17integral_constantIbLb0EEE, symObjAddr: 0x14BF0, symBinAddr: 0x100018F58, symSize: 0x120 }
  - { offsetInCU: 0x18A81, offset: 0x18A81, size: 0x8, addend: 0x0, symName: __ZNKSt3__114__split_bufferI6pollfdRNS_9allocatorIS1_EEE9__end_capB8ue170006Ev, symObjAddr: 0x14D10, symBinAddr: 0x100019078, symSize: 0x28 }
  - { offsetInCU: 0x18AA7, offset: 0x18AA7, size: 0x8, addend: 0x0, symName: __ZNKSt3__117__compressed_pairIP6pollfdRNS_9allocatorIS1_EEE5firstB8ue170006Ev, symObjAddr: 0x14D38, symBinAddr: 0x1000190A0, symSize: 0x24 }
  - { offsetInCU: 0x18ACD, offset: 0x18ACD, size: 0x8, addend: 0x0, symName: __ZNSt3__16vectorI6pollfdNS_9allocatorIS1_EEE11__make_iterB8ue170006EPS1_, symObjAddr: 0x14D5C, symBinAddr: 0x1000190C4, symSize: 0x1FC }
  - { offsetInCU: 0x18B04, offset: 0x18B04, size: 0x8, addend: 0x0, symName: __ZNSt3__111__wrap_iterIP6pollfdEC1B8ue170006ES2_, symObjAddr: 0x14F58, symBinAddr: 0x1000192C0, symSize: 0x34 }
  - { offsetInCU: 0x18B3C, offset: 0x18B3C, size: 0x8, addend: 0x0, symName: __ZNSt3__111__wrap_iterIP6pollfdEC2B8ue170006ES2_, symObjAddr: 0x14F8C, symBinAddr: 0x1000192F4, symSize: 0x70 }
  - { offsetInCU: 0x18B74, offset: 0x18B74, size: 0x8, addend: 0x0, symName: __ZNKSt3__111__wrap_iterIP6pollfdE4baseB8ue170006Ev, symObjAddr: 0x15044, symBinAddr: 0x1000193AC, symSize: 0x60 }
  - { offsetInCU: 0x18B9A, offset: 0x18B9A, size: 0x8, addend: 0x0, symName: __ZNSt3__16__treeINS_12__value_typeIiP6ClientEENS_19__map_value_compareIiS4_NS_4lessIiEELb1EEENS_9allocatorIS4_EEE12__find_equalIiEERPNS_16__tree_node_baseIPvEERPNS_15__tree_end_nodeISG_EERKT_, symObjAddr: 0x150A4, symBinAddr: 0x10001940C, symSize: 0x3F0 }
  - { offsetInCU: 0x18C07, offset: 0x18C07, size: 0x8, addend: 0x0, symName: __ZNSt3__13mapIiP6ClientNS_4lessIiEENS_9allocatorINS_4pairIKiS2_EEEEE25__construct_node_with_keyERS7_, symObjAddr: 0x15494, symBinAddr: 0x1000197FC, symSize: 0x41C }
  - { offsetInCU: 0x18C61, offset: 0x18C61, size: 0x8, addend: 0x0, symName: __ZNSt3__16__treeINS_12__value_typeIiP6ClientEENS_19__map_value_compareIiS4_NS_4lessIiEELb1EEENS_9allocatorIS4_EEE16__insert_node_atEPNS_15__tree_end_nodeIPNS_16__tree_node_baseIPvEEEERSG_SG_, symObjAddr: 0x158B0, symBinAddr: 0x100019C18, symSize: 0x370 }
  - { offsetInCU: 0x18CB6, offset: 0x18CB6, size: 0x8, addend: 0x0, symName: __ZNKSt3__110unique_ptrINS_11__tree_nodeINS_12__value_typeIiP6ClientEEPvEENS_21__map_node_destructorINS_9allocatorIS7_EEEEE3getB8ue170006Ev, symObjAddr: 0x15C20, symBinAddr: 0x100019F88, symSize: 0x6C }
  - { offsetInCU: 0x18CDC, offset: 0x18CDC, size: 0x8, addend: 0x0, symName: __ZNSt3__110unique_ptrINS_11__tree_nodeINS_12__value_typeIiP6ClientEEPvEENS_21__map_node_destructorINS_9allocatorIS7_EEEEE7releaseB8ue170006Ev, symObjAddr: 0x15C8C, symBinAddr: 0x100019FF4, symSize: 0xB8 }
  - { offsetInCU: 0x18D11, offset: 0x18D11, size: 0x8, addend: 0x0, symName: __ZNSt3__110unique_ptrINS_11__tree_nodeINS_12__value_typeIiP6ClientEEPvEENS_21__map_node_destructorINS_9allocatorIS7_EEEEED1B8ue170006Ev, symObjAddr: 0x15D44, symBinAddr: 0x10001A0AC, symSize: 0x2C }
  - { offsetInCU: 0x18D3B, offset: 0x18D3B, size: 0x8, addend: 0x0, symName: __ZNKSt3__16__treeINS_12__value_typeIiP6ClientEENS_19__map_value_compareIiS4_NS_4lessIiEELb1EEENS_9allocatorIS4_EEE10__root_ptrB8ue170006Ev, symObjAddr: 0x15D70, symBinAddr: 0x10001A0D8, symSize: 0x24 }
  - { offsetInCU: 0x18D61, offset: 0x18D61, size: 0x8, addend: 0x0, symName: __ZNSt3__16__treeINS_12__value_typeIiP6ClientEENS_19__map_value_compareIiS4_NS_4lessIiEELb1EEENS_9allocatorIS4_EEE10value_compB8ue170006Ev, symObjAddr: 0x15D94, symBinAddr: 0x10001A0FC, symSize: 0x28 }
  - { offsetInCU: 0x18D87, offset: 0x18D87, size: 0x8, addend: 0x0, symName: __ZNKSt3__119__map_value_compareIiNS_12__value_typeIiP6ClientEENS_4lessIiEELb1EEclB8ue170006ERKiRKS4_, symObjAddr: 0x15DBC, symBinAddr: 0x10001A124, symSize: 0x50 }
  - { offsetInCU: 0x18DCB, offset: 0x18DCB, size: 0x8, addend: 0x0, symName: __ZNKSt3__119__map_value_compareIiNS_12__value_typeIiP6ClientEENS_4lessIiEELb1EEclB8ue170006ERKS4_RKi, symObjAddr: 0x15E0C, symBinAddr: 0x10001A174, symSize: 0x48 }
  - { offsetInCU: 0x18E0F, offset: 0x18E0F, size: 0x8, addend: 0x0, symName: __ZNSt3__117__compressed_pairImNS_19__map_value_compareIiNS_12__value_typeIiP6ClientEENS_4lessIiEELb1EEEE6secondB8ue170006Ev, symObjAddr: 0x15E54, symBinAddr: 0x10001A1BC, symSize: 0x24 }
  - { offsetInCU: 0x18E35, offset: 0x18E35, size: 0x8, addend: 0x0, symName: __ZNSt3__122__compressed_pair_elemINS_19__map_value_compareIiNS_12__value_typeIiP6ClientEENS_4lessIiEELb1EEELi1ELb1EE5__getB8ue170006Ev, symObjAddr: 0x15E78, symBinAddr: 0x10001A1E0, symSize: 0x14 }
  - { offsetInCU: 0x18E5B, offset: 0x18E5B, size: 0x8, addend: 0x0, symName: __ZNKSt3__14lessIiEclB8ue170006ERKiS3_, symObjAddr: 0x15E8C, symBinAddr: 0x10001A1F4, symSize: 0x10C }
  - { offsetInCU: 0x18E9F, offset: 0x18E9F, size: 0x8, addend: 0x0, symName: __ZNKSt3__112__value_typeIiP6ClientE11__get_valueB8ue170006Ev, symObjAddr: 0x15F98, symBinAddr: 0x10001A300, symSize: 0x14 }
  - { offsetInCU: 0x18EC5, offset: 0x18EC5, size: 0x8, addend: 0x0, symName: __ZNSt3__116allocator_traitsINS_9allocatorINS_11__tree_nodeINS_12__value_typeIiP6ClientEEPvEEEEE8allocateB8ue170006ERS9_m, symObjAddr: 0x15FAC, symBinAddr: 0x10001A314, symSize: 0x2C }
  - { offsetInCU: 0x18EF8, offset: 0x18EF8, size: 0x8, addend: 0x0, symName: __ZNSt3__121__map_node_destructorINS_9allocatorINS_11__tree_nodeINS_12__value_typeIiP6ClientEEPvEEEEEC1B8ue170006ERS9_, symObjAddr: 0x15FD8, symBinAddr: 0x10001A340, symSize: 0x34 }
  - { offsetInCU: 0x18F37, offset: 0x18F37, size: 0x8, addend: 0x0, symName: __ZNSt3__110unique_ptrINS_11__tree_nodeINS_12__value_typeIiP6ClientEEPvEENS_21__map_node_destructorINS_9allocatorIS7_EEEEEC1B8ue170006ILb1EvEEPS7_NS_16__dependent_typeINS_27__unique_ptr_deleter_sfinaeISB_EEXT_EE20__good_rval_ref_typeE, symObjAddr: 0x1600C, symBinAddr: 0x10001A374, symSize: 0x3C }
  - { offsetInCU: 0x18F8D, offset: 0x18F8D, size: 0x8, addend: 0x0, symName: __ZNSt3__116allocator_traitsINS_9allocatorINS_11__tree_nodeINS_12__value_typeIiP6ClientEEPvEEEEE9constructB8ue170006IKiJRSC_EvEEvRS9_PT_DpOT0_, symObjAddr: 0x16048, symBinAddr: 0x10001A3B0, symSize: 0x34 }
  - { offsetInCU: 0x18FE4, offset: 0x18FE4, size: 0x8, addend: 0x0, symName: __ZNKSt3__110unique_ptrINS_11__tree_nodeINS_12__value_typeIiP6ClientEEPvEENS_21__map_node_destructorINS_9allocatorIS7_EEEEEptB8ue170006Ev, symObjAddr: 0x1607C, symBinAddr: 0x10001A3E4, symSize: 0x6C }
  - { offsetInCU: 0x1900A, offset: 0x1900A, size: 0x8, addend: 0x0, symName: __ZNSt3__110unique_ptrINS_11__tree_nodeINS_12__value_typeIiP6ClientEEPvEENS_21__map_node_destructorINS_9allocatorIS7_EEEEE11get_deleterB8ue170006Ev, symObjAddr: 0x160E8, symBinAddr: 0x10001A450, symSize: 0x24 }
  - { offsetInCU: 0x19035, offset: 0x19035, size: 0x8, addend: 0x0, symName: __ZNSt3__116allocator_traitsINS_9allocatorINS_11__tree_nodeINS_12__value_typeIiP6ClientEEPvEEEEE9constructB8ue170006IS5_JEvEEvRS9_PT_DpOT0_, symObjAddr: 0x1610C, symBinAddr: 0x10001A474, symSize: 0x2C }
  - { offsetInCU: 0x19077, offset: 0x19077, size: 0x8, addend: 0x0, symName: __ZNSt3__19allocatorINS_11__tree_nodeINS_12__value_typeIiP6ClientEEPvEEE8allocateB8ue170006Em, symObjAddr: 0x16138, symBinAddr: 0x10001A4A0, symSize: 0x90 }
  - { offsetInCU: 0x190B5, offset: 0x190B5, size: 0x8, addend: 0x0, symName: __ZNSt3__116allocator_traitsINS_9allocatorINS_11__tree_nodeINS_12__value_typeIiP6ClientEEPvEEEEE8max_sizeB8ue170006IS9_vEEmRKS9_, symObjAddr: 0x161C8, symBinAddr: 0x10001A530, symSize: 0x24 }
  - { offsetInCU: 0x190E3, offset: 0x190E3, size: 0x8, addend: 0x0, symName: __ZNKSt3__19allocatorINS_11__tree_nodeINS_12__value_typeIiP6ClientEEPvEEE8max_sizeB8ue170006Ev, symObjAddr: 0x161EC, symBinAddr: 0x10001A554, symSize: 0x18 }
  - { offsetInCU: 0x19109, offset: 0x19109, size: 0x8, addend: 0x0, symName: __ZNSt3__121__map_node_destructorINS_9allocatorINS_11__tree_nodeINS_12__value_typeIiP6ClientEEPvEEEEEC2B8ue170006ERS9_, symObjAddr: 0x16204, symBinAddr: 0x10001A56C, symSize: 0x12C }
  - { offsetInCU: 0x19142, offset: 0x19142, size: 0x8, addend: 0x0, symName: __ZNSt3__110unique_ptrINS_11__tree_nodeINS_12__value_typeIiP6ClientEEPvEENS_21__map_node_destructorINS_9allocatorIS7_EEEEEC2B8ue170006ILb1EvEEPS7_NS_16__dependent_typeINS_27__unique_ptr_deleter_sfinaeISB_EEXT_EE20__good_rval_ref_typeE, symObjAddr: 0x16330, symBinAddr: 0x10001A698, symSize: 0x230 }
  - { offsetInCU: 0x19199, offset: 0x19199, size: 0x8, addend: 0x0, symName: __ZNSt3__117__compressed_pairIPNS_11__tree_nodeINS_12__value_typeIiP6ClientEEPvEENS_21__map_node_destructorINS_9allocatorIS7_EEEEEC1B8ue170006IRS8_SC_EEOT_OT0_, symObjAddr: 0x16560, symBinAddr: 0x10001A8C8, symSize: 0x3C }
  - { offsetInCU: 0x191F1, offset: 0x191F1, size: 0x8, addend: 0x0, symName: __ZNSt3__117__compressed_pairIPNS_11__tree_nodeINS_12__value_typeIiP6ClientEEPvEENS_21__map_node_destructorINS_9allocatorIS7_EEEEEC2B8ue170006IRS8_SC_EEOT_OT0_, symObjAddr: 0x1659C, symBinAddr: 0x10001A904, symSize: 0x48 }
  - { offsetInCU: 0x19249, offset: 0x19249, size: 0x8, addend: 0x0, symName: __ZNSt3__122__compressed_pair_elemIPNS_11__tree_nodeINS_12__value_typeIiP6ClientEEPvEELi0ELb0EEC2B8ue170006IRS8_vEEOT_, symObjAddr: 0x165E4, symBinAddr: 0x10001A94C, symSize: 0xB0 }
  - { offsetInCU: 0x1928B, offset: 0x1928B, size: 0x8, addend: 0x0, symName: __ZNSt3__122__compressed_pair_elemINS_21__map_node_destructorINS_9allocatorINS_11__tree_nodeINS_12__value_typeIiP6ClientEEPvEEEEEELi1ELb0EEC2B8ue170006ISB_vEEOT_, symObjAddr: 0x16694, symBinAddr: 0x10001A9FC, symSize: 0x38 }
  - { offsetInCU: 0x192CD, offset: 0x192CD, size: 0x8, addend: 0x0, symName: __ZNSt3__19allocatorINS_11__tree_nodeINS_12__value_typeIiP6ClientEEPvEEE9constructB8ue170006IKiJRSA_EEEvPT_DpOT0_, symObjAddr: 0x166CC, symBinAddr: 0x10001AA34, symSize: 0x104 }
  - { offsetInCU: 0x19323, offset: 0x19323, size: 0x8, addend: 0x0, symName: __ZNKSt3__117__compressed_pairIPNS_11__tree_nodeINS_12__value_typeIiP6ClientEEPvEENS_21__map_node_destructorINS_9allocatorIS7_EEEEE5firstB8ue170006Ev, symObjAddr: 0x167D0, symBinAddr: 0x10001AB38, symSize: 0x24 }
  - { offsetInCU: 0x19349, offset: 0x19349, size: 0x8, addend: 0x0, symName: __ZNKSt3__122__compressed_pair_elemIPNS_11__tree_nodeINS_12__value_typeIiP6ClientEEPvEELi0ELb0EE5__getB8ue170006Ev, symObjAddr: 0x167F4, symBinAddr: 0x10001AB5C, symSize: 0x14 }
  - { offsetInCU: 0x1936F, offset: 0x1936F, size: 0x8, addend: 0x0, symName: __ZNSt3__117__compressed_pairIPNS_11__tree_nodeINS_12__value_typeIiP6ClientEEPvEENS_21__map_node_destructorINS_9allocatorIS7_EEEEE6secondB8ue170006Ev, symObjAddr: 0x16808, symBinAddr: 0x10001AB70, symSize: 0x28 }
  - { offsetInCU: 0x19395, offset: 0x19395, size: 0x8, addend: 0x0, symName: __ZNSt3__122__compressed_pair_elemINS_21__map_node_destructorINS_9allocatorINS_11__tree_nodeINS_12__value_typeIiP6ClientEEPvEEEEEELi1ELb0EE5__getB8ue170006Ev, symObjAddr: 0x16830, symBinAddr: 0x10001AB98, symSize: 0x14 }
  - { offsetInCU: 0x193BB, offset: 0x193BB, size: 0x8, addend: 0x0, symName: __ZNSt3__19allocatorINS_11__tree_nodeINS_12__value_typeIiP6ClientEEPvEEE9constructB8ue170006IS4_JEEEvPT_DpOT0_, symObjAddr: 0x16844, symBinAddr: 0x10001ABAC, symSize: 0x64 }
  - { offsetInCU: 0x193FD, offset: 0x193FD, size: 0x8, addend: 0x0, symName: __ZNSt3__16__treeINS_12__value_typeIiP6ClientEENS_19__map_value_compareIiS4_NS_4lessIiEELb1EEENS_9allocatorIS4_EEE4sizeB8ue170006Ev, symObjAddr: 0x1723C, symBinAddr: 0x10001B5A4, symSize: 0x28 }
  - { offsetInCU: 0x19423, offset: 0x19423, size: 0x8, addend: 0x0, symName: __ZNKSt3__116__tree_node_baseIPvE15__parent_unsafeB8ue170006Ev, symObjAddr: 0x17264, symBinAddr: 0x10001B5CC, symSize: 0x64 }
  - { offsetInCU: 0x19449, offset: 0x19449, size: 0x8, addend: 0x0, symName: __ZNSt3__116__tree_node_baseIPvE12__set_parentB8ue170006EPS2_, symObjAddr: 0x17A5C, symBinAddr: 0x10001BDC4, symSize: 0x74 }
  - { offsetInCU: 0x1947E, offset: 0x1947E, size: 0x8, addend: 0x0, symName: __ZNSt3__117__compressed_pairImNS_19__map_value_compareIiNS_12__value_typeIiP6ClientEENS_4lessIiEELb1EEEE5firstB8ue170006Ev, symObjAddr: 0x17AD0, symBinAddr: 0x10001BE38, symSize: 0x24 }
  - { offsetInCU: 0x194A4, offset: 0x194A4, size: 0x8, addend: 0x0, symName: __ZNSt3__122__compressed_pair_elemImLi0ELb0EE5__getB8ue170006Ev, symObjAddr: 0x17AF4, symBinAddr: 0x10001BE5C, symSize: 0x14 }
  - { offsetInCU: 0x194CA, offset: 0x194CA, size: 0x8, addend: 0x0, symName: __ZNSt3__117__compressed_pairIPNS_11__tree_nodeINS_12__value_typeIiP6ClientEEPvEENS_21__map_node_destructorINS_9allocatorIS7_EEEEE5firstB8ue170006Ev, symObjAddr: 0x17B08, symBinAddr: 0x10001BE70, symSize: 0x24 }
  - { offsetInCU: 0x194F0, offset: 0x194F0, size: 0x8, addend: 0x0, symName: __ZNSt3__122__compressed_pair_elemIPNS_11__tree_nodeINS_12__value_typeIiP6ClientEEPvEELi0ELb0EE5__getB8ue170006Ev, symObjAddr: 0x17B2C, symBinAddr: 0x10001BE94, symSize: 0x14 }
  - { offsetInCU: 0x19516, offset: 0x19516, size: 0x8, addend: 0x0, symName: __ZNSt3__110unique_ptrINS_11__tree_nodeINS_12__value_typeIiP6ClientEEPvEENS_21__map_node_destructorINS_9allocatorIS7_EEEEED2B8ue170006Ev, symObjAddr: 0x17B40, symBinAddr: 0x10001BEA8, symSize: 0x30 }
  - { offsetInCU: 0x19540, offset: 0x19540, size: 0x8, addend: 0x0, symName: __ZNSt3__110unique_ptrINS_11__tree_nodeINS_12__value_typeIiP6ClientEEPvEENS_21__map_node_destructorINS_9allocatorIS7_EEEEE5resetB8ue170006EPS7_, symObjAddr: 0x17B70, symBinAddr: 0x10001BED8, symSize: 0xEC }
  - { offsetInCU: 0x19584, offset: 0x19584, size: 0x8, addend: 0x0, symName: __ZNSt3__121__map_node_destructorINS_9allocatorINS_11__tree_nodeINS_12__value_typeIiP6ClientEEPvEEEEEclB8ue170006EPS8_, symObjAddr: 0x17C5C, symBinAddr: 0x10001BFC4, symSize: 0x23C }
  - { offsetInCU: 0x195B9, offset: 0x195B9, size: 0x8, addend: 0x0, symName: __ZNSt3__116allocator_traitsINS_9allocatorINS_11__tree_nodeINS_12__value_typeIiP6ClientEEPvEEEEE7destroyB8ue170006IS5_vvEEvRS9_PT_, symObjAddr: 0x17E98, symBinAddr: 0x10001C200, symSize: 0x14 }
  - { offsetInCU: 0x195F3, offset: 0x195F3, size: 0x8, addend: 0x0, symName: __ZNSt3__116allocator_traitsINS_9allocatorINS_11__tree_nodeINS_12__value_typeIiP6ClientEEPvEEEEE7destroyB8ue170006IKivvEEvRS9_PT_, symObjAddr: 0x17EAC, symBinAddr: 0x10001C214, symSize: 0x14 }
  - { offsetInCU: 0x1962D, offset: 0x1962D, size: 0x8, addend: 0x0, symName: __ZNSt3__16vectorINS_12basic_stringIcNS_11char_traitsIcEENS_9allocatorIcEEEENS4_IS6_EEE11__make_iterB8ue170006EPS6_, symObjAddr: 0x17EC0, symBinAddr: 0x10001C228, symSize: 0x1FC }
  - { offsetInCU: 0x19664, offset: 0x19664, size: 0x8, addend: 0x0, symName: __ZNSt3__111__wrap_iterIPNS_12basic_stringIcNS_11char_traitsIcEENS_9allocatorIcEEEEEC1B8ue170006ES7_, symObjAddr: 0x180BC, symBinAddr: 0x10001C424, symSize: 0x34 }
  - { offsetInCU: 0x1969C, offset: 0x1969C, size: 0x8, addend: 0x0, symName: __ZNSt3__111__wrap_iterIPNS_12basic_stringIcNS_11char_traitsIcEENS_9allocatorIcEEEEEC2B8ue170006ES7_, symObjAddr: 0x180F0, symBinAddr: 0x10001C458, symSize: 0x70 }
  - { offsetInCU: 0x196D4, offset: 0x196D4, size: 0x8, addend: 0x0, symName: __ZNKSt3__111__wrap_iterIPNS_12basic_stringIcNS_11char_traitsIcEENS_9allocatorIcEEEEE4baseB8ue170006Ev, symObjAddr: 0x181A8, symBinAddr: 0x10001C510, symSize: 0x60 }
  - { offsetInCU: 0x196FA, offset: 0x196FA, size: 0x8, addend: 0x0, symName: __ZNKSt3__112basic_stringIcNS_11char_traitsIcEENS_9allocatorIcEEE15__get_long_sizeB8ue170006Ev, symObjAddr: 0x18208, symBinAddr: 0x10001C570, symSize: 0x70 }
  - { offsetInCU: 0x19720, offset: 0x19720, size: 0x8, addend: 0x0, symName: __ZNKSt3__112basic_stringIcNS_11char_traitsIcEENS_9allocatorIcEEE16__get_short_sizeB8ue170006Ev, symObjAddr: 0x18278, symBinAddr: 0x10001C5E0, symSize: 0xA0 }
  - { offsetInCU: 0x19746, offset: 0x19746, size: 0x8, addend: 0x0, symName: __ZNKSt3__16vectorINS_12basic_stringIcNS_11char_traitsIcEENS_9allocatorIcEEEENS4_IS6_EEE17__annotate_shrinkB8ue170006Em, symObjAddr: 0x18318, symBinAddr: 0x10001C680, symSize: 0xF8 }
  - { offsetInCU: 0x1977B, offset: 0x1977B, size: 0x8, addend: 0x0, symName: __ZNSt3__111char_traitsIcE6assignB8ue170006ERcRKc, symObjAddr: 0x18410, symBinAddr: 0x10001C778, symSize: 0xF4 }
  - { offsetInCU: 0x197AC, offset: 0x197AC, size: 0x8, addend: 0x0, symName: __ZNSt3__112basic_stringIcNS_11char_traitsIcEENS_9allocatorIcEEE18__get_long_pointerB8ue170006Ev, symObjAddr: 0x18504, symBinAddr: 0x10001C86C, symSize: 0x6C }
  - { offsetInCU: 0x197D2, offset: 0x197D2, size: 0x8, addend: 0x0, symName: __ZNSt3__112basic_stringIcNS_11char_traitsIcEENS_9allocatorIcEEE19__get_short_pointerB8ue170006Ev, symObjAddr: 0x18570, symBinAddr: 0x10001C8D8, symSize: 0x28 }
  - { offsetInCU: 0x197F8, offset: 0x197F8, size: 0x8, addend: 0x0, symName: __ZNSt3__112basic_stringIcNS_11char_traitsIcEENS_9allocatorIcEEE16__set_short_sizeB8ue170006Em, symObjAddr: 0x18598, symBinAddr: 0x10001C900, symSize: 0x130 }
  - { offsetInCU: 0x1982D, offset: 0x1982D, size: 0x8, addend: 0x0, symName: __ZNSt3__114pointer_traitsIPcE10pointer_toB8ue170006ERc, symObjAddr: 0x186C8, symBinAddr: 0x10001CA30, symSize: 0x14 }
  - { offsetInCU: 0x19850, offset: 0x19850, size: 0x8, addend: 0x0, symName: __ZNSt3__112basic_stringIcNS_11char_traitsIcEENS_9allocatorIcEEE13__get_pointerB8ue170006Ev, symObjAddr: 0x186DC, symBinAddr: 0x10001CA44, symSize: 0x54 }
  - { offsetInCU: 0x19876, offset: 0x19876, size: 0x8, addend: 0x0, symName: __ZNSt3__19allocatorIcEC1B8ue170006Ev, symObjAddr: 0x18730, symBinAddr: 0x10001CA98, symSize: 0x2C }
  - { offsetInCU: 0x198A0, offset: 0x198A0, size: 0x8, addend: 0x0, symName: __ZNSt3__16vectorINS_12basic_stringIcNS_11char_traitsIcEENS_9allocatorIcEEEENS4_IS6_EEE13__move_assignERS8_NS_17integral_constantIbLb1EEE, symObjAddr: 0x18838, symBinAddr: 0x10001CBA0, symSize: 0x28C }
  - { offsetInCU: 0x198E2, offset: 0x198E2, size: 0x8, addend: 0x0, symName: __ZNSt3__16vectorINS_12basic_stringIcNS_11char_traitsIcEENS_9allocatorIcEEEENS4_IS6_EEE13__vdeallocateEv, symObjAddr: 0x18AC4, symBinAddr: 0x10001CE2C, symSize: 0x194 }
  - { offsetInCU: 0x1990A, offset: 0x1990A, size: 0x8, addend: 0x0, symName: __ZNSt3__16vectorINS_12basic_stringIcNS_11char_traitsIcEENS_9allocatorIcEEEENS4_IS6_EEE19__move_assign_allocB8ue170006ERS8_, symObjAddr: 0x18C58, symBinAddr: 0x10001CFC0, symSize: 0x2C }
  - { offsetInCU: 0x1993F, offset: 0x1993F, size: 0x8, addend: 0x0, symName: __ZNSt3__16vectorINS_12basic_stringIcNS_11char_traitsIcEENS_9allocatorIcEEEENS4_IS6_EEE9__end_capB8ue170006Ev, symObjAddr: 0x18C84, symBinAddr: 0x10001CFEC, symSize: 0x28 }
  - { offsetInCU: 0x19965, offset: 0x19965, size: 0x8, addend: 0x0, symName: __ZNSt3__16vectorINS_12basic_stringIcNS_11char_traitsIcEENS_9allocatorIcEEEENS4_IS6_EEE19__move_assign_allocB8ue170006ERS8_NS_17integral_constantIbLb1EEE, symObjAddr: 0x18CAC, symBinAddr: 0x10001D014, symSize: 0x38 }
  - { offsetInCU: 0x199A5, offset: 0x199A5, size: 0x8, addend: 0x0, symName: __ZNSt3__117__compressed_pairIPNS_12basic_stringIcNS_11char_traitsIcEENS_9allocatorIcEEEENS4_IS6_EEE5firstB8ue170006Ev, symObjAddr: 0x18CE4, symBinAddr: 0x10001D04C, symSize: 0x24 }
  - { offsetInCU: 0x199CB, offset: 0x199CB, size: 0x8, addend: 0x0, symName: __ZNSt3__122__compressed_pair_elemIPNS_12basic_stringIcNS_11char_traitsIcEENS_9allocatorIcEEEELi0ELb0EE5__getB8ue170006Ev, symObjAddr: 0x18D08, symBinAddr: 0x10001D070, symSize: 0x14 }
  - { offsetInCU: 0x199F1, offset: 0x199F1, size: 0x8, addend: 0x0, symName: __ZNSt3__16__treeINS_12__value_typeIiP6ClientEENS_19__map_value_compareIiS4_NS_4lessIiEELb1EEENS_9allocatorIS4_EEE4findIiEENS_15__tree_iteratorIS4_PNS_11__tree_nodeIS4_PvEElEERKT_, symObjAddr: 0x18D1C, symBinAddr: 0x10001D084, symSize: 0x3FC }
  - { offsetInCU: 0x19A46, offset: 0x19A46, size: 0x8, addend: 0x0, symName: __ZNSt3__114__map_iteratorINS_15__tree_iteratorINS_12__value_typeIiP6ClientEEPNS_11__tree_nodeIS5_PvEElEEEC1B8ue170006ESA_, symObjAddr: 0x19118, symBinAddr: 0x10001D480, symSize: 0x238 }
  - { offsetInCU: 0x19A84, offset: 0x19A84, size: 0x8, addend: 0x0, symName: __ZNSt3__16__treeINS_12__value_typeIiP6ClientEENS_19__map_value_compareIiS4_NS_4lessIiEELb1EEENS_9allocatorIS4_EEE13__lower_boundIiEENS_15__tree_iteratorIS4_PNS_11__tree_nodeIS4_PvEElEERKT_SH_PNS_15__tree_end_nodeIPNS_16__tree_node_baseISF_EEEE, symObjAddr: 0x19350, symBinAddr: 0x10001D6B8, symSize: 0x2E0 }
  - { offsetInCU: 0x19AE6, offset: 0x19AE6, size: 0x8, addend: 0x0, symName: __ZNSt3__16__treeINS_12__value_typeIiP6ClientEENS_19__map_value_compareIiS4_NS_4lessIiEELb1EEENS_9allocatorIS4_EEE3endB8ue170006Ev, symObjAddr: 0x19664, symBinAddr: 0x10001D9CC, symSize: 0x204 }
  - { offsetInCU: 0x19B0D, offset: 0x19B0D, size: 0x8, addend: 0x0, symName: __ZNKSt3__115__tree_iteratorINS_12__value_typeIiP6ClientEEPNS_11__tree_nodeIS4_PvEElEdeB8ue170006Ev, symObjAddr: 0x19868, symBinAddr: 0x10001DBD0, symSize: 0x28 }
  - { offsetInCU: 0x19B33, offset: 0x19B33, size: 0x8, addend: 0x0, symName: __ZNSt3__115__tree_iteratorINS_12__value_typeIiP6ClientEEPNS_11__tree_nodeIS4_PvEElEC1B8ue170006EPNS_15__tree_end_nodeIPNS_16__tree_node_baseIS6_EEEE, symObjAddr: 0x19890, symBinAddr: 0x10001DBF8, symSize: 0x34 }
  - { offsetInCU: 0x19B6C, offset: 0x19B6C, size: 0x8, addend: 0x0, symName: __ZNSt3__115__tree_iteratorINS_12__value_typeIiP6ClientEEPNS_11__tree_nodeIS4_PvEElEC2B8ue170006EPNS_15__tree_end_nodeIPNS_16__tree_node_baseIS6_EEEE, symObjAddr: 0x198C4, symBinAddr: 0x10001DC2C, symSize: 0x70 }
  - { offsetInCU: 0x19BA5, offset: 0x19BA5, size: 0x8, addend: 0x0, symName: __ZNKSt3__115__tree_iteratorINS_12__value_typeIiP6ClientEEPNS_11__tree_nodeIS4_PvEElE8__get_npB8ue170006Ev, symObjAddr: 0x199EC, symBinAddr: 0x10001DD54, symSize: 0x60 }
  - { offsetInCU: 0x19BCB, offset: 0x19BCB, size: 0x8, addend: 0x0, symName: __ZNSt3__114__map_iteratorINS_15__tree_iteratorINS_12__value_typeIiP6ClientEEPNS_11__tree_nodeIS5_PvEElEEEC2B8ue170006ESA_, symObjAddr: 0x19A4C, symBinAddr: 0x10001DDB4, symSize: 0x204 }
  - { offsetInCU: 0x19C09, offset: 0x19C09, size: 0x8, addend: 0x0, symName: __ZNSt3__114pointer_traitsIPNS_4pairIKiP6ClientEEE10pointer_toB8ue170006ERS5_, symObjAddr: 0x19C50, symBinAddr: 0x10001DFB8, symSize: 0x14 }
  - { offsetInCU: 0x19C2C, offset: 0x19C2C, size: 0x8, addend: 0x0, symName: __ZNKSt3__115__tree_iteratorINS_12__value_typeIiP6ClientEEPNS_11__tree_nodeIS4_PvEElEptB8ue170006Ev, symObjAddr: 0x19C64, symBinAddr: 0x10001DFCC, symSize: 0x2C }
  - { offsetInCU: 0x19C52, offset: 0x19C52, size: 0x8, addend: 0x0, symName: __ZNSt3__114pointer_traitsIPNS_12__value_typeIiP6ClientEEE10pointer_toB8ue170006ERS4_, symObjAddr: 0x19C90, symBinAddr: 0x10001DFF8, symSize: 0x14 }
  - { offsetInCU: 0x19C75, offset: 0x19C75, size: 0x8, addend: 0x0, symName: __ZNSt3__16__treeINS_12__value_typeIiP6ClientEENS_19__map_value_compareIiS4_NS_4lessIiEELb1EEENS_9allocatorIS4_EEE5eraseENS_21__tree_const_iteratorIS4_PNS_11__tree_nodeIS4_PvEElEE, symObjAddr: 0x19CA4, symBinAddr: 0x10001E00C, symSize: 0x310 }
  - { offsetInCU: 0x19CE4, offset: 0x19CE4, size: 0x8, addend: 0x0, symName: __ZNSt3__121__tree_const_iteratorINS_12__value_typeIiP6ClientEEPNS_11__tree_nodeIS4_PvEElEC1B8ue170006ENS_15__tree_iteratorIS4_S8_lEE, symObjAddr: 0x19FB4, symBinAddr: 0x10001E31C, symSize: 0x238 }
  - { offsetInCU: 0x19D22, offset: 0x19D22, size: 0x8, addend: 0x0, symName: __ZNKSt3__121__tree_const_iteratorINS_12__value_typeIiP6ClientEEPNS_11__tree_nodeIS4_PvEElE8__get_npB8ue170006Ev, symObjAddr: 0x1A1EC, symBinAddr: 0x10001E554, symSize: 0x60 }
  - { offsetInCU: 0x19D48, offset: 0x19D48, size: 0x8, addend: 0x0, symName: __ZNSt3__16__treeINS_12__value_typeIiP6ClientEENS_19__map_value_compareIiS4_NS_4lessIiEELb1EEENS_9allocatorIS4_EEE21__remove_node_pointerEPNS_11__tree_nodeIS4_PvEE, symObjAddr: 0x1A24C, symBinAddr: 0x10001E5B4, symSize: 0x39C }
  - { offsetInCU: 0x19D94, offset: 0x19D94, size: 0x8, addend: 0x0, symName: __ZNKSt3__121__tree_const_iteratorINS_12__value_typeIiP6ClientEEPNS_11__tree_nodeIS4_PvEElEdeB8ue170006Ev, symObjAddr: 0x1A5E8, symBinAddr: 0x10001E950, symSize: 0x28 }
  - { offsetInCU: 0x19DBA, offset: 0x19DBA, size: 0x8, addend: 0x0, symName: __ZNSt3__115__tree_iteratorINS_12__value_typeIiP6ClientEEPNS_11__tree_nodeIS4_PvEElEC1B8ue170006ES8_, symObjAddr: 0x1A610, symBinAddr: 0x10001E978, symSize: 0x34 }
  - { offsetInCU: 0x19DF3, offset: 0x19DF3, size: 0x8, addend: 0x0, symName: __ZNSt3__115__tree_iteratorINS_12__value_typeIiP6ClientEEPNS_11__tree_nodeIS4_PvEElEppB8ue170006Ev, symObjAddr: 0x1A644, symBinAddr: 0x10001E9AC, symSize: 0xA8 }
  - { offsetInCU: 0x19E19, offset: 0x19E19, size: 0x8, addend: 0x0, symName: __ZNSt3__115__tree_iteratorINS_12__value_typeIiP6ClientEEPNS_11__tree_nodeIS4_PvEElEC2B8ue170006ES8_, symObjAddr: 0x1C5C0, symBinAddr: 0x100020928, symSize: 0x70 }
  - { offsetInCU: 0x19E52, offset: 0x19E52, size: 0x8, addend: 0x0, symName: __ZNSt3__121__tree_const_iteratorINS_12__value_typeIiP6ClientEEPNS_11__tree_nodeIS4_PvEElEC2B8ue170006ENS_15__tree_iteratorIS4_S8_lEE, symObjAddr: 0x1C924, symBinAddr: 0x100020C8C, symSize: 0x270 }
  - { offsetInCU: 0x19E90, offset: 0x19E90, size: 0x8, addend: 0x0, symName: __ZNKSt3__16vectorI6pollfdNS_9allocatorIS1_EEE6cbeginB8ue170006Ev, symObjAddr: 0x1CBDC, symBinAddr: 0x100020F44, symSize: 0x234 }
  - { offsetInCU: 0x19EB7, offset: 0x19EB7, size: 0x8, addend: 0x0, symName: __ZNSt3__16vectorI6pollfdNS_9allocatorIS1_EEE17__destruct_at_endB8ue170006EPS1_, symObjAddr: 0x1CE10, symBinAddr: 0x100021178, symSize: 0x4C }
  - { offsetInCU: 0x19EFB, offset: 0x19EFB, size: 0x8, addend: 0x0, symName: __ZNKSt3__111__wrap_iterIPK6pollfdE4baseB8ue170006Ev, symObjAddr: 0x1D0B0, symBinAddr: 0x100021418, symSize: 0x60 }
  - { offsetInCU: 0x19F21, offset: 0x19F21, size: 0x8, addend: 0x0, symName: __ZNKSt3__16vectorI6pollfdNS_9allocatorIS1_EEE5beginB8ue170006Ev, symObjAddr: 0x1D110, symBinAddr: 0x100021478, symSize: 0x268 }
  - { offsetInCU: 0x19F4A, offset: 0x19F4A, size: 0x8, addend: 0x0, symName: __ZNKSt3__16vectorI6pollfdNS_9allocatorIS1_EEE11__make_iterB8ue170006EPKS1_, symObjAddr: 0x1D378, symBinAddr: 0x1000216E0, symSize: 0x1FC }
  - { offsetInCU: 0x19F81, offset: 0x19F81, size: 0x8, addend: 0x0, symName: __ZNSt3__111__wrap_iterIPK6pollfdEC1B8ue170006ES3_, symObjAddr: 0x1D574, symBinAddr: 0x1000218DC, symSize: 0x34 }
  - { offsetInCU: 0x19FB9, offset: 0x19FB9, size: 0x8, addend: 0x0, symName: __ZNSt3__111__wrap_iterIPK6pollfdEC2B8ue170006ES3_, symObjAddr: 0x1D5A8, symBinAddr: 0x100021910, symSize: 0x70 }
  - { offsetInCU: 0x1A015, offset: 0x1A015, size: 0x8, addend: 0x0, symName: __ZNKSt3__114__move_trivialclB8ue170006I6pollfdS2_Li0EEENS_4pairIPT_PT0_EES5_S5_S7_, symObjAddr: 0x1E364, symBinAddr: 0x1000226CC, symSize: 0x230 }
  - { offsetInCU: 0x1A081, offset: 0x1A081, size: 0x8, addend: 0x0, symName: __ZNSt3__14pairIP6pollfdS2_EC1B8ue170006ERKS2_S5_, symObjAddr: 0x1EEBC, symBinAddr: 0x100023224, symSize: 0x3C }
  - { offsetInCU: 0x1A0C7, offset: 0x1A0C7, size: 0x8, addend: 0x0, symName: __ZNSt3__14pairIP6pollfdS2_EC2B8ue170006ERKS2_S5_, symObjAddr: 0x1EEF8, symBinAddr: 0x100023260, symSize: 0x138 }
  - { offsetInCU: 0x1A10D, offset: 0x1A10D, size: 0x8, addend: 0x0, symName: __ZNSt3__118__unwrap_iter_implIP6pollfdLb1EE8__unwrapB8ue170006ES2_, symObjAddr: 0x1F030, symBinAddr: 0x100023398, symSize: 0x24 }
  - { offsetInCU: 0x1A130, offset: 0x1A130, size: 0x8, addend: 0x0, symName: __ZNSt3__118__unwrap_iter_implIP6pollfdLb1EE8__rewrapB8ue170006ES2_S2_, symObjAddr: 0x1F054, symBinAddr: 0x1000233BC, symSize: 0x50 }
  - { offsetInCU: 0x1A161, offset: 0x1A161, size: 0x8, addend: 0x0, symName: __ZNSt3__111__wrap_iterIPK6pollfdEC2B8ue170006IPS1_EERKNS0_IT_EEPNS_9enable_ifIXsr14is_convertibleIS7_S3_EE5valueEvE4typeE, symObjAddr: 0x1F0A4, symBinAddr: 0x10002340C, symSize: 0x84 }
  - { offsetInCU: 0x1A1AD, offset: 0x1A1AD, size: 0x8, addend: 0x0, symName: __ZNSt3__16__treeINS_12__value_typeIiP6ClientEENS_19__map_value_compareIiS4_NS_4lessIiEELb1EEENS_9allocatorIS4_EEE5beginB8ue170006Ev, symObjAddr: 0x1F128, symBinAddr: 0x100023490, symSize: 0x238 }
  - { offsetInCU: 0x1A1D4, offset: 0x1A1D4, size: 0x8, addend: 0x0, symName: __ZNSt3__16__treeINS_12__value_typeIiP6ClientEENS_19__map_value_compareIiS4_NS_4lessIiEELb1EEENS_9allocatorIS4_EEE5clearEv, symObjAddr: 0x1F360, symBinAddr: 0x1000236C8, symSize: 0x118 }
  - { offsetInCU: 0x3B, offset: 0x1A41A, size: 0x8, addend: 0x0, symName: _.str, symObjAddr: 0x31E40, symBinAddr: 0x10008D160, symSize: 0x0 }
  - { offsetInCU: 0x6B, offset: 0x1A44A, size: 0x8, addend: 0x0, symName: _.str.1, symObjAddr: 0x31E80, symBinAddr: 0x10008A480, symSize: 0x0 }
  - { offsetInCU: 0x88, offset: 0x1A467, size: 0x8, addend: 0x0, symName: _.str.2, symObjAddr: 0x31EA0, symBinAddr: 0x10008A4A0, symSize: 0x0 }
  - { offsetInCU: 0xA6, offset: 0x1A485, size: 0x8, addend: 0x0, symName: _.str.3, symObjAddr: 0x31F00, symBinAddr: 0x10008A500, symSize: 0x0 }
  - { offsetInCU: 0xC4, offset: 0x1A4A3, size: 0x8, addend: 0x0, symName: _.str.4, symObjAddr: 0x31F20, symBinAddr: 0x10008A520, symSize: 0x0 }
  - { offsetInCU: 0xD6, offset: 0x1A4B5, size: 0x8, addend: 0x0, symName: _.str.5, symObjAddr: 0x31F40, symBinAddr: 0x10008A540, symSize: 0x0 }
  - { offsetInCU: 0xE8, offset: 0x1A4C7, size: 0x8, addend: 0x0, symName: _.str.6, symObjAddr: 0x31F60, symBinAddr: 0x10008A560, symSize: 0x0 }
  - { offsetInCU: 0x106, offset: 0x1A4E5, size: 0x8, addend: 0x0, symName: _.str.7, symObjAddr: 0x31F80, symBinAddr: 0x10008A580, symSize: 0x0 }
  - { offsetInCU: 0x124, offset: 0x1A503, size: 0x8, addend: 0x0, symName: _.str.8, symObjAddr: 0x31FA0, symBinAddr: 0x10008A5A0, symSize: 0x0 }
  - { offsetInCU: 0x142, offset: 0x1A521, size: 0x8, addend: 0x0, symName: _.str.9, symObjAddr: 0x31FC0, symBinAddr: 0x10008A5C0, symSize: 0x0 }
  - { offsetInCU: 0x160, offset: 0x1A53F, size: 0x8, addend: 0x0, symName: _.str.10, symObjAddr: 0x32000, symBinAddr: 0x10008A600, symSize: 0x0 }
  - { offsetInCU: 0x172, offset: 0x1A551, size: 0x8, addend: 0x0, symName: _.str.11, symObjAddr: 0x32020, symBinAddr: 0x10008A620, symSize: 0x0 }
  - { offsetInCU: 0x190, offset: 0x1A56F, size: 0x8, addend: 0x0, symName: _.str.12, symObjAddr: 0x32040, symBinAddr: 0x10008A640, symSize: 0x0 }
  - { offsetInCU: 0x1A2, offset: 0x1A581, size: 0x8, addend: 0x0, symName: _.str.13, symObjAddr: 0x32060, symBinAddr: 0x10008A660, symSize: 0x0 }
  - { offsetInCU: 0x1B4, offset: 0x1A593, size: 0x8, addend: 0x0, symName: _.str.14, symObjAddr: 0x32080, symBinAddr: 0x10008A680, symSize: 0x0 }
  - { offsetInCU: 0x1C6, offset: 0x1A5A5, size: 0x8, addend: 0x0, symName: _.str.15, symObjAddr: 0x320A0, symBinAddr: 0x10008A6A0, symSize: 0x0 }
  - { offsetInCU: 0x1E4, offset: 0x1A5C3, size: 0x8, addend: 0x0, symName: _.str.16, symObjAddr: 0x320E0, symBinAddr: 0x10008A6E0, symSize: 0x0 }
  - { offsetInCU: 0x1FA, offset: 0x1A5D9, size: 0x8, addend: 0x0, symName: _operators, symObjAddr: 0xCC8E0, symBinAddr: 0x1000B2840, symSize: 0x0 }
  - { offsetInCU: 0xA06B, offset: 0x2444A, size: 0x8, addend: 0x0, symName: __ZNSt3__17advanceB8ue170006INS_21__tree_const_iteratorINS_12__value_typeINS_12basic_stringIcNS_11char_traitsIcEENS_9allocatorIcEEEEP6ClientEEPNS_11__tree_nodeISB_PvEElEEllvEEvRT_T0_, symObjAddr: 0x1C7A8, symBinAddr: 0x10003B070, symSize: 0x38 }
  - { offsetInCU: 0xA0FD, offset: 0x244DC, size: 0x8, addend: 0x0, symName: __ZNSt3__17advanceB8ue170006INS_21__tree_const_iteratorINS_12__value_typeIcbEEPNS_11__tree_nodeIS3_PvEElEEllvEEvRT_T0_, symObjAddr: 0x23150, symBinAddr: 0x100041790, symSize: 0x38 }
  - { offsetInCU: 0xA6D4, offset: 0x24AB3, size: 0x8, addend: 0x0, symName: __ZNSt3__16copy_nB8ue170006IPKcmPcEENS_9enable_ifIXsr37__has_random_access_iterator_categoryIT_EE5valueET1_E4typeES5_T0_S6_, symObjAddr: 0x2E970, symBinAddr: 0x10004A460, symSize: 0x44 }
  - { offsetInCU: 0xD989, offset: 0x27D68, size: 0x8, addend: 0x0, symName: __ZNSt3__1neB8ue170006ERKNS_14__map_iteratorINS_15__tree_iteratorINS_12__value_typeINS_12basic_stringIcNS_11char_traitsIcEENS_9allocatorIcEEEE7ChannelEEPNS_11__tree_nodeISA_PvEElEEEESI_, symObjAddr: 0x2138, symBinAddr: 0x100025978, symSize: 0x30 }
  - { offsetInCU: 0xD9C6, offset: 0x27DA5, size: 0x8, addend: 0x0, symName: __ZNSt3__1neB8ue170006ERKNS_14__map_iteratorINS_15__tree_iteratorINS_12__value_typeINS_12basic_stringIcNS_11char_traitsIcEENS_9allocatorIcEEEEP6ClientEEPNS_11__tree_nodeISB_PvEElEEEESJ_, symObjAddr: 0x324C, symBinAddr: 0x100026A8C, symSize: 0x30 }
  - { offsetInCU: 0xDA03, offset: 0x27DE2, size: 0x8, addend: 0x0, symName: __ZNSt3__1neB8ue170006ERKNS_14__map_iteratorINS_15__tree_iteratorINS_12__value_typeIcbEEPNS_11__tree_nodeIS3_PvEElEEEESB_, symObjAddr: 0x39FC, symBinAddr: 0x10002723C, symSize: 0x30 }
  - { offsetInCU: 0xDA40, offset: 0x27E1F, size: 0x8, addend: 0x0, symName: __ZNSt3__1neB8ue170006ERKNS_20__map_const_iteratorINS_21__tree_const_iteratorINS_12__value_typeIcbEEPNS_11__tree_nodeIS3_PvEElEEEESB_, symObjAddr: 0x4FCC, symBinAddr: 0x1000287D8, symSize: 0x30 }
  - { offsetInCU: 0xDA7D, offset: 0x27E5C, size: 0x8, addend: 0x0, symName: __ZNSt3__19make_pairB8ue170006INS_12basic_stringIcNS_11char_traitsIcEENS_9allocatorIcEEEER7ChannelEENS_4pairINS_18__unwrap_ref_decayIT_E4typeENSA_IT0_E4typeEEEOSB_OSE_, symObjAddr: 0x8878, symBinAddr: 0x10002B9F0, symSize: 0x40 }
  - { offsetInCU: 0xDB84, offset: 0x27F63, size: 0x8, addend: 0x0, symName: __ZNSt3__1plB8ue170006IcNS_11char_traitsIcEENS_9allocatorIcEEEENS_12basic_stringIT_T0_T1_EERKS9_PKS6_, symObjAddr: 0xA328, symBinAddr: 0x10002D474, symSize: 0x2E8 }
  - { offsetInCU: 0xDC2B, offset: 0x2800A, size: 0x8, addend: 0x0, symName: __ZNSt3__1plB8ue170006IcNS_11char_traitsIcEENS_9allocatorIcEEEENS_12basic_stringIT_T0_T1_EERKS9_SB_, symObjAddr: 0xA610, symBinAddr: 0x10002D75C, symSize: 0x2F8 }
  - { offsetInCU: 0xDCD2, offset: 0x280B1, size: 0x8, addend: 0x0, symName: __ZNSt3__1plB8ue170006IcNS_11char_traitsIcEENS_9allocatorIcEEEENS_12basic_stringIT_T0_T1_EERKS9_S6_, symObjAddr: 0xA934, symBinAddr: 0x10002DA80, symSize: 0x2DC }
  - { offsetInCU: 0xDD69, offset: 0x28148, size: 0x8, addend: 0x0, symName: __ZNSt3__1neB8ue170006ERKNS_20__map_const_iteratorINS_21__tree_const_iteratorINS_12__value_typeINS_12basic_stringIcNS_11char_traitsIcEENS_9allocatorIcEEEEP6ClientEEPNS_11__tree_nodeISB_PvEElEEEESJ_, symObjAddr: 0xB62C, symBinAddr: 0x10002E778, symSize: 0x30 }
  - { offsetInCU: 0xDDA6, offset: 0x28185, size: 0x8, addend: 0x0, symName: __ZNSt3__1ltB8ue170006IcNS_11char_traitsIcEENS_9allocatorIcEEEEbRKNS_12basic_stringIT_T0_T1_EESB_, symObjAddr: 0xE884, symBinAddr: 0x100030CCC, symSize: 0x38 }
  - { offsetInCU: 0xDE3A, offset: 0x28219, size: 0x8, addend: 0x0, symName: __ZNSt3__1neB8ue170006ERKNS_15__tree_iteratorINS_12__value_typeINS_12basic_stringIcNS_11char_traitsIcEENS_9allocatorIcEEEE7ChannelEEPNS_11__tree_nodeIS9_PvEElEESG_, symObjAddr: 0x13EE0, symBinAddr: 0x1000349F8, symSize: 0x34 }
  - { offsetInCU: 0xDE77, offset: 0x28256, size: 0x8, addend: 0x0, symName: __ZNSt3__1eqB8ue170006ERKNS_15__tree_iteratorINS_12__value_typeINS_12basic_stringIcNS_11char_traitsIcEENS_9allocatorIcEEEE7ChannelEEPNS_11__tree_nodeIS9_PvEElEESG_, symObjAddr: 0x1432C, symBinAddr: 0x100034DD0, symSize: 0xB8 }
  - { offsetInCU: 0xDF1A, offset: 0x282F9, size: 0x8, addend: 0x0, symName: __ZNSt3__1eqB8ue170006ERKNS_15__tree_iteratorINS_12__value_typeINS_12basic_stringIcNS_11char_traitsIcEENS_9allocatorIcEEEEP6ClientEEPNS_11__tree_nodeISA_PvEElEESH_, symObjAddr: 0x14F18, symBinAddr: 0x1000359A8, symSize: 0xB8 }
  - { offsetInCU: 0xDF57, offset: 0x28336, size: 0x8, addend: 0x0, symName: __ZNSt3__1neB8ue170006ERKNS_15__tree_iteratorINS_12__value_typeINS_12basic_stringIcNS_11char_traitsIcEENS_9allocatorIcEEEEP6ClientEEPNS_11__tree_nodeISA_PvEElEESH_, symObjAddr: 0x159FC, symBinAddr: 0x10003648C, symSize: 0x34 }
  - { offsetInCU: 0xDFB8, offset: 0x28397, size: 0x8, addend: 0x0, symName: __ZNSt3__1eqB8ue170006ERKNS_21__tree_const_iteratorINS_12__value_typeINS_12basic_stringIcNS_11char_traitsIcEENS_9allocatorIcEEEEP6ClientEEPNS_11__tree_nodeISA_PvEElEESH_, symObjAddr: 0x1BFC0, symBinAddr: 0x10003A888, symSize: 0xB8 }
  - { offsetInCU: 0xDFF5, offset: 0x283D4, size: 0x8, addend: 0x0, symName: __ZNSt3__14nextB8ue170006INS_21__tree_const_iteratorINS_12__value_typeINS_12basic_stringIcNS_11char_traitsIcEENS_9allocatorIcEEEEP6ClientEEPNS_11__tree_nodeISB_PvEElEEEENS_9enable_ifIXsr29__has_input_iterator_categoryIT_EE5valueESI_E4typeESI_NS_15iterator_traitsISI_E15difference_typeE, symObjAddr: 0x1C358, symBinAddr: 0x10003AC20, symSize: 0x288 }
  - { offsetInCU: 0xE03D, offset: 0x2841C, size: 0x8, addend: 0x0, symName: __ZNSt3__116__tree_prev_iterB8ue170006IPNS_16__tree_node_baseIPvEEPNS_15__tree_end_nodeIS4_EEEET_T0_, symObjAddr: 0x1C5E0, symBinAddr: 0x10003AEA8, symSize: 0xFC }
  - { offsetInCU: 0xE089, offset: 0x28468, size: 0x8, addend: 0x0, symName: __ZNSt3__110__tree_maxB8ue170006IPNS_16__tree_node_baseIPvEEEET_S5_, symObjAddr: 0x1C6DC, symBinAddr: 0x10003AFA4, symSize: 0xCC }
  - { offsetInCU: 0xE0BE, offset: 0x2849D, size: 0x8, addend: 0x0, symName: __ZNSt3__121__convert_to_integralB8ue170006El, symObjAddr: 0x1C7E0, symBinAddr: 0x10003B0A8, symSize: 0x14 }
  - { offsetInCU: 0xE0EA, offset: 0x284C9, size: 0x8, addend: 0x0, symName: __ZNSt3__19__advanceB8ue170006INS_21__tree_const_iteratorINS_12__value_typeINS_12basic_stringIcNS_11char_traitsIcEENS_9allocatorIcEEEEP6ClientEEPNS_11__tree_nodeISB_PvEElEEEEvRT_NS_15iterator_traitsISH_E15difference_typeENS_26bidirectional_iterator_tagE, symObjAddr: 0x1C7F4, symBinAddr: 0x10003B0BC, symSize: 0xA4 }
  - { offsetInCU: 0xE186, offset: 0x28565, size: 0x8, addend: 0x0, symName: __ZNSt3__1neB8ue170006ERKNS_15__tree_iteratorINS_12__value_typeIcbEEPNS_11__tree_nodeIS2_PvEElEES9_, symObjAddr: 0x1E41C, symBinAddr: 0x10003CCE4, symSize: 0x34 }
  - { offsetInCU: 0xE1C3, offset: 0x285A2, size: 0x8, addend: 0x0, symName: __ZNSt3__1eqB8ue170006ERKNS_15__tree_iteratorINS_12__value_typeIcbEEPNS_11__tree_nodeIS2_PvEElEES9_, symObjAddr: 0x1E720, symBinAddr: 0x10003CFE8, symSize: 0xB8 }
  - { offsetInCU: 0xE266, offset: 0x28645, size: 0x8, addend: 0x0, symName: __ZNSt3__1neB8ue170006ERKNS_21__tree_const_iteratorINS_12__value_typeIcbEEPNS_11__tree_nodeIS2_PvEElEES9_, symObjAddr: 0x1F648, symBinAddr: 0x10003DC88, symSize: 0x34 }
  - { offsetInCU: 0xE2A3, offset: 0x28682, size: 0x8, addend: 0x0, symName: __ZNSt3__1eqB8ue170006ERKNS_21__tree_const_iteratorINS_12__value_typeIcbEEPNS_11__tree_nodeIS2_PvEElEES9_, symObjAddr: 0x1F67C, symBinAddr: 0x10003DCBC, symSize: 0xB8 }
  - { offsetInCU: 0xE36A, offset: 0x28749, size: 0x8, addend: 0x0, symName: __ZNSt3__14nextB8ue170006INS_21__tree_const_iteratorINS_12__value_typeIcbEEPNS_11__tree_nodeIS3_PvEElEEEENS_9enable_ifIXsr29__has_input_iterator_categoryIT_EE5valueESA_E4typeESA_NS_15iterator_traitsISA_E15difference_typeE, symObjAddr: 0x22C58, symBinAddr: 0x100041298, symSize: 0x288 }
  - { offsetInCU: 0xE3B2, offset: 0x28791, size: 0x8, addend: 0x0, symName: __ZNSt3__19__advanceB8ue170006INS_21__tree_const_iteratorINS_12__value_typeIcbEEPNS_11__tree_nodeIS3_PvEElEEEEvRT_NS_15iterator_traitsIS9_E15difference_typeENS_26bidirectional_iterator_tagE, symObjAddr: 0x23188, symBinAddr: 0x1000417C8, symSize: 0xA4 }
  - { offsetInCU: 0xE481, offset: 0x28860, size: 0x8, addend: 0x0, symName: __ZNSt3__119__allocate_at_leastB8ue170006INS_9allocatorINS_12basic_stringIcNS_11char_traitsIcEENS1_IcEEEEEEEENS_19__allocation_resultINS_16allocator_traitsIT_E7pointerEEERSA_m, symObjAddr: 0x264D0, symBinAddr: 0x100044358, symSize: 0x28C }
  - { offsetInCU: 0xE4C6, offset: 0x288A5, size: 0x8, addend: 0x0, symName: __ZNSt3__142__uninitialized_allocator_move_if_noexceptB8ue170006INS_9allocatorINS_12basic_stringIcNS_11char_traitsIcEENS1_IcEEEEEENS_16reverse_iteratorIPS6_EESA_SA_EET2_RT_T0_T1_SB_, symObjAddr: 0x26B00, symBinAddr: 0x100044828, symSize: 0x558 }
  - { offsetInCU: 0xE57B, offset: 0x2895A, size: 0x8, addend: 0x0, symName: __ZNSt3__14swapB8ue170006IPNS_12basic_stringIcNS_11char_traitsIcEENS_9allocatorIcEEEEEEvRT_S9_, symObjAddr: 0x270F0, symBinAddr: 0x100044E18, symSize: 0x134 }
  - { offsetInCU: 0xE5CC, offset: 0x289AB, size: 0x8, addend: 0x0, symName: __ZNSt3__122__make_exception_guardB8ue170006INS_29_AllocatorDestroyRangeReverseINS_9allocatorINS_12basic_stringIcNS_11char_traitsIcEENS2_IcEEEEEENS_16reverse_iteratorIPS7_EEEEEENS_28__exception_guard_exceptionsIT_EESE_, symObjAddr: 0x27314, symBinAddr: 0x10004503C, symSize: 0x1F8 }
  - { offsetInCU: 0xE603, offset: 0x289E2, size: 0x8, addend: 0x0, symName: __ZNSt3__1neB8ue170006IPNS_12basic_stringIcNS_11char_traitsIcEENS_9allocatorIcEEEES7_EEbRKNS_16reverse_iteratorIT_EERKNS8_IT0_EE, symObjAddr: 0x27550, symBinAddr: 0x100045278, symSize: 0x48 }
  - { offsetInCU: 0xE64F, offset: 0x28A2E, size: 0x8, addend: 0x0, symName: __ZNSt3__112__to_addressB8ue170006INS_16reverse_iteratorIPNS_12basic_stringIcNS_11char_traitsIcEENS_9allocatorIcEEEEEEvEEu7__decayIDTclsr19__to_address_helperIT_EE6__callclsr3stdE7declvalIRKSA_EEEEESC_, symObjAddr: 0x27598, symBinAddr: 0x1000452C0, symSize: 0x24 }
  - { offsetInCU: 0xE6AE, offset: 0x28A8D, size: 0x8, addend: 0x0, symName: __ZNSt3__119__allocator_destroyB8ue170006INS_9allocatorINS_12basic_stringIcNS_11char_traitsIcEENS1_IcEEEEEENS_16reverse_iteratorINS8_IPS6_EEEESB_EEvRT_T0_T1_, symObjAddr: 0x27DFC, symBinAddr: 0x100045B24, symSize: 0x70 }
  - { offsetInCU: 0xE713, offset: 0x28AF2, size: 0x8, addend: 0x0, symName: __ZNSt3__1neB8ue170006INS_16reverse_iteratorIPNS_12basic_stringIcNS_11char_traitsIcEENS_9allocatorIcEEEEEES9_EEbRKNS1_IT_EERKNS1_IT0_EE, symObjAddr: 0x280B4, symBinAddr: 0x100045DDC, symSize: 0x2CC }
  - { offsetInCU: 0xE761, offset: 0x28B40, size: 0x8, addend: 0x0, symName: __ZNSt3__112__to_addressB8ue170006INS_16reverse_iteratorINS1_IPNS_12basic_stringIcNS_11char_traitsIcEENS_9allocatorIcEEEEEEEEvEEu7__decayIDTclsr19__to_address_helperIT_EE6__callclsr3stdE7declvalIRKSB_EEEEESD_, symObjAddr: 0x283AC, symBinAddr: 0x1000460A8, symSize: 0x24 }
  - { offsetInCU: 0xE7C0, offset: 0x28B9F, size: 0x8, addend: 0x0, symName: __ZNSt3__123__str_find_first_not_ofB8ue170006IcmNS_11char_traitsIcEELm18446744073709551615EEET0_PKT_S3_S6_S3_S3_, symObjAddr: 0x2AF84, symBinAddr: 0x100046C68, symSize: 0x124 }
  - { offsetInCU: 0xE88B, offset: 0x28C6A, size: 0x8, addend: 0x0, symName: __ZNSt3__118__constexpr_memchrB8ue170006IKccEEPT_S3_T0_m, symObjAddr: 0x2B1A8, symBinAddr: 0x100046E8C, symSize: 0x3FC }
  - { offsetInCU: 0xE90C, offset: 0x28CEB, size: 0x8, addend: 0x0, symName: __ZNSt3__122__str_find_last_not_ofB8ue170006IcmNS_11char_traitsIcEELm18446744073709551615EEET0_PKT_S3_S6_S3_S3_, symObjAddr: 0x2B5A4, symBinAddr: 0x100047288, symSize: 0x104 }
  - { offsetInCU: 0xE9E0, offset: 0x28DBF, size: 0x8, addend: 0x0, symName: __ZNSt3__112__to_addressB8ue170006IcEEPT_S2_, symObjAddr: 0x2E0F0, symBinAddr: 0x100049C34, symSize: 0x14 }
  - { offsetInCU: 0xEC17, offset: 0x28FF6, size: 0x8, addend: 0x0, symName: __ZNSt3__14copyB8ue170006IPKcPcEET0_T_S5_S4_, symObjAddr: 0x2E9B4, symBinAddr: 0x10004A4A4, symSize: 0x254 }
  - { offsetInCU: 0xEC74, offset: 0x29053, size: 0x8, addend: 0x0, symName: __ZNSt3__16__copyB8ue170006INS_17_ClassicAlgPolicyEPKcS3_PcEENS_4pairIT0_T2_EES6_T1_S7_, symObjAddr: 0x2EC08, symBinAddr: 0x10004A6F8, symSize: 0x22C }
  - { offsetInCU: 0xECE3, offset: 0x290C2, size: 0x8, addend: 0x0, symName: __ZNSt3__123__dispatch_copy_or_moveB8ue170006INS_17_ClassicAlgPolicyENS_11__copy_loopIS1_EENS_14__copy_trivialEPKcS6_PcEENS_4pairIT2_T4_EES9_T3_SA_, symObjAddr: 0x2EE34, symBinAddr: 0x10004A924, symSize: 0x22C }
  - { offsetInCU: 0xED64, offset: 0x29143, size: 0x8, addend: 0x0, symName: __ZNSt3__121__unwrap_and_dispatchB8ue170006INS_10__overloadINS_11__copy_loopINS_17_ClassicAlgPolicyEEENS_14__copy_trivialEEEPKcS8_PcLi0EEENS_4pairIT0_T2_EESB_T1_SC_, symObjAddr: 0x2F060, symBinAddr: 0x10004AB50, symSize: 0x5A4 }
  - { offsetInCU: 0xEDFD, offset: 0x291DC, size: 0x8, addend: 0x0, symName: __ZNSt3__114__unwrap_rangeB8ue170006IPKcS2_EENS_4pairIT0_S4_EET_S6_, symObjAddr: 0x2F604, symBinAddr: 0x10004B0F4, symSize: 0x350 }
  - { offsetInCU: 0xEF3E, offset: 0x2931D, size: 0x8, addend: 0x0, symName: __ZNSt3__113__unwrap_iterB8ue170006IPcNS_18__unwrap_iter_implIS1_Lb1EEELi0EEEDTclsrT0_8__unwrapclsr3stdE7declvalIT_EEEES5_, symObjAddr: 0x2FB84, symBinAddr: 0x10004B674, symSize: 0x24 }
  - { offsetInCU: 0xEF82, offset: 0x29361, size: 0x8, addend: 0x0, symName: __ZNSt3__19make_pairB8ue170006IPKcPcEENS_4pairINS_18__unwrap_ref_decayIT_E4typeENS5_IT0_E4typeEEEOS6_OS9_, symObjAddr: 0x2FBA8, symBinAddr: 0x10004B698, symSize: 0x20C }
  - { offsetInCU: 0xEFD3, offset: 0x293B2, size: 0x8, addend: 0x0, symName: __ZNSt3__114__rewrap_rangeB8ue170006IPKcS2_EET_S3_T0_, symObjAddr: 0x2FDB4, symBinAddr: 0x10004B8A4, symSize: 0x2C }
  - { offsetInCU: 0xF01F, offset: 0x293FE, size: 0x8, addend: 0x0, symName: __ZNSt3__113__rewrap_iterB8ue170006IPcS1_NS_18__unwrap_iter_implIS1_Lb1EEEEET_S4_T0_, symObjAddr: 0x2FDE0, symBinAddr: 0x10004B8D0, symSize: 0x5C }
  - { offsetInCU: 0xF074, offset: 0x29453, size: 0x8, addend: 0x0, symName: __ZNSt3__19make_pairB8ue170006IPKcS2_EENS_4pairINS_18__unwrap_ref_decayIT_E4typeENS4_IT0_E4typeEEEOS5_OS8_, symObjAddr: 0x2FE3C, symBinAddr: 0x10004B92C, symSize: 0x20C }
  - { offsetInCU: 0xF0C5, offset: 0x294A4, size: 0x8, addend: 0x0, symName: __ZNSt3__113__unwrap_iterB8ue170006IPKcNS_18__unwrap_iter_implIS2_Lb1EEELi0EEEDTclsrT0_8__unwrapclsr3stdE7declvalIT_EEEES6_, symObjAddr: 0x30048, symBinAddr: 0x10004BB38, symSize: 0x24 }
  - { offsetInCU: 0xF209, offset: 0x295E8, size: 0x8, addend: 0x0, symName: __ZNSt3__119__copy_trivial_implB8ue170006IKccEENS_4pairIPT_PT0_EES4_S4_S6_, symObjAddr: 0x30204, symBinAddr: 0x10004BCF4, symSize: 0x3AC }
  - { offsetInCU: 0xF278, offset: 0x29657, size: 0x8, addend: 0x0, symName: __ZNSt3__119__constexpr_memmoveB8ue170006IcKcLi0EEEPT_S3_PT0_NS_15__element_countE, symObjAddr: 0x305B0, symBinAddr: 0x10004C0A0, symSize: 0xB0 }
  - { offsetInCU: 0xF2E6, offset: 0x296C5, size: 0x8, addend: 0x0, symName: __ZNSt3__19make_pairB8ue170006IRPKcPcEENS_4pairINS_18__unwrap_ref_decayIT_E4typeENS6_IT0_E4typeEEEOS7_OSA_, symObjAddr: 0x30660, symBinAddr: 0x10004C150, symSize: 0x20C }
  - { offsetInCU: 0xF38A, offset: 0x29769, size: 0x8, addend: 0x0, symName: __ZNSt3__113__rewrap_iterB8ue170006IPKcS2_NS_18__unwrap_iter_implIS2_Lb1EEEEET_S5_T0_, symObjAddr: 0x30A04, symBinAddr: 0x10004C4F4, symSize: 0x5C }
  - { offsetInCU: 0xF3DF, offset: 0x297BE, size: 0x8, addend: 0x0, symName: __ZNSt3__16fill_nB8ue170006IPcmcEET_S2_T0_RKT1_, symObjAddr: 0x30AF0, symBinAddr: 0x10004C5E0, symSize: 0x44 }
  - { offsetInCU: 0xF442, offset: 0x29821, size: 0x8, addend: 0x0, symName: __ZNSt3__18__fill_nB8ue170006IPcmcEET_S2_T0_RKT1_, symObjAddr: 0x30B34, symBinAddr: 0x10004C624, symSize: 0x138 }
  - { offsetInCU: 0xF4A5, offset: 0x29884, size: 0x8, addend: 0x0, symName: __ZNSt3__121__convert_to_integralB8ue170006Em, symObjAddr: 0x30C6C, symBinAddr: 0x10004C75C, symSize: 0x14 }
  - { offsetInCU: 0xF4D1, offset: 0x298B0, size: 0x8, addend: 0x0, symName: __ZNSt3__1neB8ue170006ERKNS_21__tree_const_iteratorINS_12__value_typeINS_12basic_stringIcNS_11char_traitsIcEENS_9allocatorIcEEEEP6ClientEEPNS_11__tree_nodeISA_PvEElEESH_, symObjAddr: 0x30F54, symBinAddr: 0x10004CA44, symSize: 0x34 }
  - { offsetInCU: 0xFE2D, offset: 0x2A20C, size: 0x8, addend: 0x0, symName: _users, symObjAddr: 0xCC920, symBinAddr: 0x1000B2880, symSize: 0x0 }
  - { offsetInCU: 0xFE44, offset: 0x2A223, size: 0x8, addend: 0x0, symName: _inviteList, symObjAddr: 0xCC960, symBinAddr: 0x1000B28C0, symSize: 0x0 }
  - { offsetInCU: 0xFE5B, offset: 0x2A23A, size: 0x8, addend: 0x0, symName: _modes, symObjAddr: 0xCC9A0, symBinAddr: 0x1000B2900, symSize: 0x0 }
  - { offsetInCU: 0x10233, offset: 0x2A612, size: 0x8, addend: 0x0, symName: __topic, symObjAddr: 0xCC9E0, symBinAddr: 0x1000B2940, symSize: 0x0 }
  - { offsetInCU: 0x1024A, offset: 0x2A629, size: 0x8, addend: 0x0, symName: __key, symObjAddr: 0xCCA20, symBinAddr: 0x1000B2980, symSize: 0x0 }
  - { offsetInCU: 0x1025D, offset: 0x2A63C, size: 0x8, addend: 0x0, symName: _.str.22, symObjAddr: 0x32100, symBinAddr: 0x10008A700, symSize: 0x0 }
  - { offsetInCU: 0x1027B, offset: 0x2A65A, size: 0x8, addend: 0x0, symName: _.str.23, symObjAddr: 0x32120, symBinAddr: 0x10008A720, symSize: 0x0 }
  - { offsetInCU: 0x107DA, offset: 0x2ABB9, size: 0x8, addend: 0x0, symName: __ZNSt3__16vectorINS_12basic_stringIcNS_11char_traitsIcEENS_9allocatorIcEEEENS4_IS6_EEE26__swap_out_circular_bufferERNS_14__split_bufferIS6_RS7_EE, symObjAddr: 0x25290, symBinAddr: 0x100043470, symSize: 0x56C }
  - { offsetInCU: 0x1271B, offset: 0x2CAFA, size: 0x8, addend: 0x0, symName: __ZN7ChannelC2ERNSt3__112basic_stringIcNS0_11char_traitsIcEENS0_9allocatorIcEEEEP6Client, symObjAddr: 0x0, symBinAddr: 0x100023878, symSize: 0xAC8 }
  - { offsetInCU: 0x12766, offset: 0x2CB45, size: 0x8, addend: 0x0, symName: __ZNSt3__13mapINS_12basic_stringIcNS_11char_traitsIcEENS_9allocatorIcEEEEP6ClientNS_4lessIS6_EENS4_INS_4pairIKS6_S8_EEEEEC1B8ue170006Ev, symObjAddr: 0xAF4, symBinAddr: 0x100024340, symSize: 0x2C }
  - { offsetInCU: 0x12790, offset: 0x2CB6F, size: 0x8, addend: 0x0, symName: __ZNSt3__13mapIcbNS_4lessIcEENS_9allocatorINS_4pairIKcbEEEEEC1B8ue170006Ev, symObjAddr: 0xB20, symBinAddr: 0x10002436C, symSize: 0x2C }
  - { offsetInCU: 0x127BA, offset: 0x2CB99, size: 0x8, addend: 0x0, symName: __ZNSt3__13mapINS_12basic_stringIcNS_11char_traitsIcEENS_9allocatorIcEEEEP6ClientNS_4lessIS6_EENS4_INS_4pairIKS6_S8_EEEEEixERSC_, symObjAddr: 0xB4C, symBinAddr: 0x100024398, symSize: 0x374 }
  - { offsetInCU: 0x1283F, offset: 0x2CC1E, size: 0x8, addend: 0x0, symName: __ZNSt3__13mapIcbNS_4lessIcEENS_9allocatorINS_4pairIKcbEEEEEixERS5_, symObjAddr: 0xEC0, symBinAddr: 0x10002470C, symSize: 0x374 }
  - { offsetInCU: 0x128C4, offset: 0x2CCA3, size: 0x8, addend: 0x0, symName: __ZN7Channel7setModeEcb, symObjAddr: 0x1234, symBinAddr: 0x100024A80, symSize: 0x49C }
  - { offsetInCU: 0x12920, offset: 0x2CCFF, size: 0x8, addend: 0x0, symName: __ZNSt3__13mapIcbNS_4lessIcEENS_9allocatorINS_4pairIKcbEEEEED1B8ue170006Ev, symObjAddr: 0x16D0, symBinAddr: 0x100024F1C, symSize: 0x2C }
  - { offsetInCU: 0x1294A, offset: 0x2CD29, size: 0x8, addend: 0x0, symName: __ZNSt3__13mapINS_12basic_stringIcNS_11char_traitsIcEENS_9allocatorIcEEEEP6ClientNS_4lessIS6_EENS4_INS_4pairIKS6_S8_EEEEED1B8ue170006Ev, symObjAddr: 0x1708, symBinAddr: 0x100024F48, symSize: 0x2C }
  - { offsetInCU: 0x12974, offset: 0x2CD53, size: 0x8, addend: 0x0, symName: __ZN7ChannelC1ERNSt3__112basic_stringIcNS0_11char_traitsIcEENS0_9allocatorIcEEEEP6Client, symObjAddr: 0x1734, symBinAddr: 0x100024F74, symSize: 0x3C }
  - { offsetInCU: 0x129BC, offset: 0x2CD9B, size: 0x8, addend: 0x0, symName: __ZN7ChannelD2Ev, symObjAddr: 0x1770, symBinAddr: 0x100024FB0, symSize: 0x174 }
  - { offsetInCU: 0x129E8, offset: 0x2CDC7, size: 0x8, addend: 0x0, symName: __ZN7ChannelD1Ev, symObjAddr: 0x18E4, symBinAddr: 0x100025124, symSize: 0x2C }
  - { offsetInCU: 0x133F4, offset: 0x2D7D3, size: 0x8, addend: 0x0, symName: __ZN6Server10getChannelENSt3__112basic_stringIcNS0_11char_traitsIcEENS0_9allocatorIcEEEE, symObjAddr: 0x1910, symBinAddr: 0x100025150, symSize: 0x230 }
  - { offsetInCU: 0x1343F, offset: 0x2D81E, size: 0x8, addend: 0x0, symName: __ZNSt3__13mapINS_12basic_stringIcNS_11char_traitsIcEENS_9allocatorIcEEEE7ChannelNS_4lessIS6_EENS4_INS_4pairIKS6_S7_EEEEE4findB8ue170006ERSB_, symObjAddr: 0x1B40, symBinAddr: 0x100025380, symSize: 0x2BC }
  - { offsetInCU: 0x13476, offset: 0x2D855, size: 0x8, addend: 0x0, symName: __ZNKSt3__114__map_iteratorINS_15__tree_iteratorINS_12__value_typeINS_12basic_stringIcNS_11char_traitsIcEENS_9allocatorIcEEEE7ChannelEEPNS_11__tree_nodeISA_PvEElEEEptB8ue170006Ev, symObjAddr: 0x1DFC, symBinAddr: 0x10002563C, symSize: 0x2C }
  - { offsetInCU: 0x1349C, offset: 0x2D87B, size: 0x8, addend: 0x0, symName: __ZN6Server17isChannelInServerERNSt3__112basic_stringIcNS0_11char_traitsIcEENS0_9allocatorIcEEEE, symObjAddr: 0x1E28, symBinAddr: 0x100025668, symSize: 0x310 }
  - { offsetInCU: 0x134E6, offset: 0x2D8C5, size: 0x8, addend: 0x0, symName: __ZNSt3__13mapINS_12basic_stringIcNS_11char_traitsIcEENS_9allocatorIcEEEE7ChannelNS_4lessIS6_EENS4_INS_4pairIKS6_S7_EEEEE3endB8ue170006Ev, symObjAddr: 0x2168, symBinAddr: 0x1000259A8, symSize: 0x2B4 }
  - { offsetInCU: 0x1350D, offset: 0x2D8EC, size: 0x8, addend: 0x0, symName: __ZN7Channel9addClientEP6Client, symObjAddr: 0x241C, symBinAddr: 0x100025C5C, symSize: 0x484 }
  - { offsetInCU: 0x13557, offset: 0x2D936, size: 0x8, addend: 0x0, symName: __ZN7Channel10isInInviteENSt3__112basic_stringIcNS0_11char_traitsIcEENS0_9allocatorIcEEEE, symObjAddr: 0x28A0, symBinAddr: 0x1000260E0, symSize: 0x2FC }
  - { offsetInCU: 0x13590, offset: 0x2D96F, size: 0x8, addend: 0x0, symName: __ZNSt3__13mapINS_12basic_stringIcNS_11char_traitsIcEENS_9allocatorIcEEEEP6ClientNS_4lessIS6_EENS4_INS_4pairIKS6_S8_EEEEE5eraseB8ue170006ERSC_, symObjAddr: 0x2B9C, symBinAddr: 0x1000263DC, symSize: 0x2C }
  - { offsetInCU: 0x135C5, offset: 0x2D9A4, size: 0x8, addend: 0x0, symName: __ZNKSt3__13mapINS_12basic_stringIcNS_11char_traitsIcEENS_9allocatorIcEEEEP6ClientNS_4lessIS6_EENS4_INS_4pairIKS6_S8_EEEEE4sizeB8ue170006Ev, symObjAddr: 0x2BC8, symBinAddr: 0x100026408, symSize: 0x6C }
  - { offsetInCU: 0x135EB, offset: 0x2D9CA, size: 0x8, addend: 0x0, symName: __ZN7Channel8setTopicERNSt3__112basic_stringIcNS0_11char_traitsIcEENS0_9allocatorIcEEEE, symObjAddr: 0x2C34, symBinAddr: 0x100026474, symSize: 0x48 }
  - { offsetInCU: 0x13621, offset: 0x2DA00, size: 0x8, addend: 0x0, symName: __ZN7Channel17isClientInChannelENSt3__112basic_stringIcNS0_11char_traitsIcEENS0_9allocatorIcEEEE, symObjAddr: 0x2C7C, symBinAddr: 0x1000264BC, symSize: 0x314 }
  - { offsetInCU: 0x1366C, offset: 0x2DA4B, size: 0x8, addend: 0x0, symName: __ZNSt3__13mapINS_12basic_stringIcNS_11char_traitsIcEENS_9allocatorIcEEEEP6ClientNS_4lessIS6_EENS4_INS_4pairIKS6_S8_EEEEE4findB8ue170006ERSC_, symObjAddr: 0x2F90, symBinAddr: 0x1000267D0, symSize: 0x2BC }
  - { offsetInCU: 0x136A3, offset: 0x2DA82, size: 0x8, addend: 0x0, symName: __ZNSt3__13mapINS_12basic_stringIcNS_11char_traitsIcEENS_9allocatorIcEEEEP6ClientNS_4lessIS6_EENS4_INS_4pairIKS6_S8_EEEEE3endB8ue170006Ev, symObjAddr: 0x327C, symBinAddr: 0x100026ABC, symSize: 0x2B4 }
  - { offsetInCU: 0x136CA, offset: 0x2DAA9, size: 0x8, addend: 0x0, symName: __ZNK7Channel8getUsersEv, symObjAddr: 0x3530, symBinAddr: 0x100026D70, symSize: 0x3C }
  - { offsetInCU: 0x136F2, offset: 0x2DAD1, size: 0x8, addend: 0x0, symName: __ZNSt3__13mapINS_12basic_stringIcNS_11char_traitsIcEENS_9allocatorIcEEEEP6ClientNS_4lessIS6_EENS4_INS_4pairIKS6_S8_EEEEEC1B8ue170006ERKSF_, symObjAddr: 0x356C, symBinAddr: 0x100026DAC, symSize: 0x34 }
  - { offsetInCU: 0x1372B, offset: 0x2DB0A, size: 0x8, addend: 0x0, symName: __ZN7Channel9checkModeEc, symObjAddr: 0x35A0, symBinAddr: 0x100026DE0, symSize: 0x45C }
  - { offsetInCU: 0x13766, offset: 0x2DB45, size: 0x8, addend: 0x0, symName: __ZNSt3__13mapIcbNS_4lessIcEENS_9allocatorINS_4pairIKcbEEEEE4findB8ue170006ERS5_, symObjAddr: 0x3A2C, symBinAddr: 0x10002726C, symSize: 0x2BC }
  - { offsetInCU: 0x1379D, offset: 0x2DB7C, size: 0x8, addend: 0x0, symName: __ZNSt3__13mapIcbNS_4lessIcEENS_9allocatorINS_4pairIKcbEEEEE3endB8ue170006Ev, symObjAddr: 0x3CE8, symBinAddr: 0x100027528, symSize: 0x2B4 }
  - { offsetInCU: 0x137C4, offset: 0x2DBA3, size: 0x8, addend: 0x0, symName: __ZNKSt3__114__map_iteratorINS_15__tree_iteratorINS_12__value_typeIcbEEPNS_11__tree_nodeIS3_PvEElEEEptB8ue170006Ev, symObjAddr: 0x3F9C, symBinAddr: 0x1000277DC, symSize: 0x2C }
  - { offsetInCU: 0x137EA, offset: 0x2DBC9, size: 0x8, addend: 0x0, symName: __ZN7Channel10isOperatorERNSt3__112basic_stringIcNS0_11char_traitsIcEENS0_9allocatorIcEEEE, symObjAddr: 0x3FC8, symBinAddr: 0x100027808, symSize: 0x2F8 }
  - { offsetInCU: 0x13822, offset: 0x2DC01, size: 0x8, addend: 0x0, symName: __ZN7Channel12inviteClientEP6Client, symObjAddr: 0x42C0, symBinAddr: 0x100027B00, symSize: 0x348 }
  - { offsetInCU: 0x1386C, offset: 0x2DC4B, size: 0x8, addend: 0x0, symName: __ZN7Channel6setKeyERNSt3__112basic_stringIcNS0_11char_traitsIcEENS0_9allocatorIcEEEE, symObjAddr: 0x4608, symBinAddr: 0x100027E48, symSize: 0x48 }
  - { offsetInCU: 0x138A2, offset: 0x2DC81, size: 0x8, addend: 0x0, symName: __ZNK7Channel6getKeyEv, symObjAddr: 0x4650, symBinAddr: 0x100027E90, symSize: 0x3C }
  - { offsetInCU: 0x138CA, offset: 0x2DCA9, size: 0x8, addend: 0x0, symName: __ZNK7Channel12getUserLimitEv, symObjAddr: 0x468C, symBinAddr: 0x100027ECC, symSize: 0x8C }
  - { offsetInCU: 0x138F2, offset: 0x2DCD1, size: 0x8, addend: 0x0, symName: __ZNK7Channel8getModesEv, symObjAddr: 0x4718, symBinAddr: 0x100027F58, symSize: 0x5CC }
  - { offsetInCU: 0x13953, offset: 0x2DD32, size: 0x8, addend: 0x0, symName: __ZNKSt3__13mapIcbNS_4lessIcEENS_9allocatorINS_4pairIKcbEEEEE5beginB8ue170006Ev, symObjAddr: 0x4D18, symBinAddr: 0x100028524, symSize: 0x2B4 }
  - { offsetInCU: 0x1397A, offset: 0x2DD59, size: 0x8, addend: 0x0, symName: __ZNKSt3__13mapIcbNS_4lessIcEENS_9allocatorINS_4pairIKcbEEEEE3endB8ue170006Ev, symObjAddr: 0x4FFC, symBinAddr: 0x100028808, symSize: 0x2B4 }
  - { offsetInCU: 0x139A1, offset: 0x2DD80, size: 0x8, addend: 0x0, symName: __ZNKSt3__120__map_const_iteratorINS_21__tree_const_iteratorINS_12__value_typeIcbEEPNS_11__tree_nodeIS3_PvEElEEEptB8ue170006Ev, symObjAddr: 0x52B0, symBinAddr: 0x100028ABC, symSize: 0x2C }
  - { offsetInCU: 0x139C7, offset: 0x2DDA6, size: 0x8, addend: 0x0, symName: __ZNSt3__112basic_stringIcNS_11char_traitsIcEENS_9allocatorIcEEEpLB8ue170006Ec, symObjAddr: 0x52DC, symBinAddr: 0x100028AE8, symSize: 0x34 }
  - { offsetInCU: 0x139FC, offset: 0x2DDDB, size: 0x8, addend: 0x0, symName: __ZNSt3__120__map_const_iteratorINS_21__tree_const_iteratorINS_12__value_typeIcbEEPNS_11__tree_nodeIS3_PvEElEEEppB8ue170006Ev, symObjAddr: 0x5310, symBinAddr: 0x100028B1C, symSize: 0x2C }
  - { offsetInCU: 0x13A22, offset: 0x2DE01, size: 0x8, addend: 0x0, symName: __ZNK7Channel11getModesMapEv, symObjAddr: 0x536C, symBinAddr: 0x100028B48, symSize: 0x3C }
  - { offsetInCU: 0x13A4A, offset: 0x2DE29, size: 0x8, addend: 0x0, symName: __ZNSt3__13mapIcbNS_4lessIcEENS_9allocatorINS_4pairIKcbEEEEEC1B8ue170006ERKS8_, symObjAddr: 0x53A8, symBinAddr: 0x100028B84, symSize: 0x34 }
  - { offsetInCU: 0x13A83, offset: 0x2DE62, size: 0x8, addend: 0x0, symName: __ZN7Channel16broadcastMessageENSt3__112basic_stringIcNS0_11char_traitsIcEENS0_9allocatorIcEEEE, symObjAddr: 0x53DC, symBinAddr: 0x100028BB8, symSize: 0x3CC }
  - { offsetInCU: 0x13ACE, offset: 0x2DEAD, size: 0x8, addend: 0x0, symName: __ZNSt3__114__map_iteratorINS_15__tree_iteratorINS_12__value_typeINS_12basic_stringIcNS_11char_traitsIcEENS_9allocatorIcEEEEP6ClientEEPNS_11__tree_nodeISB_PvEElEEEC1B8ue170006Ev, symObjAddr: 0x57A8, symBinAddr: 0x100028F84, symSize: 0x2C }
  - { offsetInCU: 0x13AF8, offset: 0x2DED7, size: 0x8, addend: 0x0, symName: __ZNSt3__13mapINS_12basic_stringIcNS_11char_traitsIcEENS_9allocatorIcEEEEP6ClientNS_4lessIS6_EENS4_INS_4pairIKS6_S8_EEEEE5beginB8ue170006Ev, symObjAddr: 0x57D4, symBinAddr: 0x100028FB0, symSize: 0x2B4 }
  - { offsetInCU: 0x13B1F, offset: 0x2DEFE, size: 0x8, addend: 0x0, symName: __ZNKSt3__114__map_iteratorINS_15__tree_iteratorINS_12__value_typeINS_12basic_stringIcNS_11char_traitsIcEENS_9allocatorIcEEEEP6ClientEEPNS_11__tree_nodeISB_PvEElEEEptB8ue170006Ev, symObjAddr: 0x5A88, symBinAddr: 0x100029264, symSize: 0x2C }
  - { offsetInCU: 0x13B45, offset: 0x2DF24, size: 0x8, addend: 0x0, symName: __ZNSt3__16vectorINS_12basic_stringIcNS_11char_traitsIcEENS_9allocatorIcEEEENS4_IS6_EEE9push_backB8ue170006ERKS6_, symObjAddr: 0x5AB4, symBinAddr: 0x100029290, symSize: 0xE0 }
  - { offsetInCU: 0x13B7C, offset: 0x2DF5B, size: 0x8, addend: 0x0, symName: __ZNSt3__114__map_iteratorINS_15__tree_iteratorINS_12__value_typeINS_12basic_stringIcNS_11char_traitsIcEENS_9allocatorIcEEEEP6ClientEEPNS_11__tree_nodeISB_PvEElEEEppB8ue170006Ev, symObjAddr: 0x5B94, symBinAddr: 0x100029370, symSize: 0x2C }
  - { offsetInCU: 0x13BA2, offset: 0x2DF81, size: 0x8, addend: 0x0, symName: __ZN7Channel12sendToOthersEP6ClientNSt3__112basic_stringIcNS2_11char_traitsIcEENS2_9allocatorIcEEEE, symObjAddr: 0x5BC0, symBinAddr: 0x10002939C, symSize: 0x428 }
  - { offsetInCU: 0x13BFC, offset: 0x2DFDB, size: 0x8, addend: 0x0, symName: __ZNK7Channel14getChannelNameEv, symObjAddr: 0x5FE8, symBinAddr: 0x1000297C4, symSize: 0x38 }
  - { offsetInCU: 0x13C24, offset: 0x2E003, size: 0x8, addend: 0x0, symName: __ZN7Channel9removeKeyEv, symObjAddr: 0x6020, symBinAddr: 0x1000297FC, symSize: 0x40 }
  - { offsetInCU: 0x13C4C, offset: 0x2E02B, size: 0x8, addend: 0x0, symName: __ZN7Channel12setUserLimitEi, symObjAddr: 0x636C, symBinAddr: 0x10002983C, symSize: 0xF4 }
  - { offsetInCU: 0x13C82, offset: 0x2E061, size: 0x8, addend: 0x0, symName: __ZN7Channel15removeUserLimitEv, symObjAddr: 0x65A8, symBinAddr: 0x100029930, symSize: 0xA0 }
  - { offsetInCU: 0x13CAA, offset: 0x2E089, size: 0x8, addend: 0x0, symName: __ZN7Channel11addOperatorENSt3__112basic_stringIcNS0_11char_traitsIcEENS0_9allocatorIcEEEE, symObjAddr: 0x6648, symBinAddr: 0x1000299D0, symSize: 0x3C8 }
  - { offsetInCU: 0x13CF5, offset: 0x2E0D4, size: 0x8, addend: 0x0, symName: __ZN7Channel14removeOperatorENSt3__112basic_stringIcNS0_11char_traitsIcEENS0_9allocatorIcEEEE, symObjAddr: 0x6A10, symBinAddr: 0x100029D98, symSize: 0x594 }
  - { offsetInCU: 0x13D40, offset: 0x2E11F, size: 0x8, addend: 0x0, symName: __ZNSt3__13mapINS_12basic_stringIcNS_11char_traitsIcEENS_9allocatorIcEEEEP6ClientNS_4lessIS6_EENS4_INS_4pairIKS6_S8_EEEEE5eraseB8ue170006ENS_14__map_iteratorINS_15__tree_iteratorINS_12__value_typeIS6_S8_EEPNS_11__tree_nodeISJ_PvEElEEEE, symObjAddr: 0x6FA4, symBinAddr: 0x10002A32C, symSize: 0x3E4 }
  - { offsetInCU: 0x13D7A, offset: 0x2E159, size: 0x8, addend: 0x0, symName: __ZNKSt3__13mapINS_12basic_stringIcNS_11char_traitsIcEENS_9allocatorIcEEEEP6ClientNS_4lessIS6_EENS4_INS_4pairIKS6_S8_EEEEE5emptyB8ue170006Ev, symObjAddr: 0x7388, symBinAddr: 0x10002A710, symSize: 0x78 }
  - { offsetInCU: 0x13DA0, offset: 0x2E17F, size: 0x8, addend: 0x0, symName: __ZNK7Channel8getTopicEv, symObjAddr: 0x7400, symBinAddr: 0x10002A788, symSize: 0x3C }
  - { offsetInCU: 0x13DC8, offset: 0x2E1A7, size: 0x8, addend: 0x0, symName: __ZN7Channel12removeInviteERNSt3__112basic_stringIcNS0_11char_traitsIcEENS0_9allocatorIcEEEE, symObjAddr: 0x743C, symBinAddr: 0x10002A7C4, symSize: 0x3BC }
  - { offsetInCU: 0x13E12, offset: 0x2E1F1, size: 0x8, addend: 0x0, symName: __ZN7Channel12removeClientEP6Client, symObjAddr: 0x77F8, symBinAddr: 0x10002AB80, symSize: 0x4F8 }
  - { offsetInCU: 0x13E5E, offset: 0x2E23D, size: 0x8, addend: 0x0, symName: __Z7ft_trimNSt3__112basic_stringIcNS_11char_traitsIcEENS_9allocatorIcEEEE, symObjAddr: 0x7CF0, symBinAddr: 0x10002B078, symSize: 0xCC }
  - { offsetInCU: 0x13EAC, offset: 0x2E28B, size: 0x8, addend: 0x0, symName: __ZNKSt3__112basic_stringIcNS_11char_traitsIcEENS_9allocatorIcEEE17find_first_not_ofB8ue170006EPKcm, symObjAddr: 0x7DBC, symBinAddr: 0x10002B144, symSize: 0x74 }
  - { offsetInCU: 0x13EF2, offset: 0x2E2D1, size: 0x8, addend: 0x0, symName: __ZNKSt3__112basic_stringIcNS_11char_traitsIcEENS_9allocatorIcEEE16find_last_not_ofB8ue170006EPKcm, symObjAddr: 0x7E30, symBinAddr: 0x10002B1B8, symSize: 0x74 }
  - { offsetInCU: 0x13F38, offset: 0x2E317, size: 0x8, addend: 0x0, symName: __ZN6Server10addChannelER7Channel, symObjAddr: 0x80B4, symBinAddr: 0x10002B22C, symSize: 0x51C }
  - { offsetInCU: 0x13F72, offset: 0x2E351, size: 0x8, addend: 0x0, symName: __ZNSt3__13mapINS_12basic_stringIcNS_11char_traitsIcEENS_9allocatorIcEEEE7ChannelNS_4lessIS6_EENS4_INS_4pairIKS6_S7_EEEEE6insertB8ue170006ERKSC_, symObjAddr: 0x85D0, symBinAddr: 0x10002B748, symSize: 0x2A8 }
  - { offsetInCU: 0x13FC3, offset: 0x2E3A2, size: 0x8, addend: 0x0, symName: __ZNSt3__14pairIKNS_12basic_stringIcNS_11char_traitsIcEENS_9allocatorIcEEEE7ChannelEC1B8ue170006IS6_S8_EERKNS0_IT_T0_EE, symObjAddr: 0x88B8, symBinAddr: 0x10002BA30, symSize: 0x34 }
  - { offsetInCU: 0x1400D, offset: 0x2E3EC, size: 0x8, addend: 0x0, symName: __ZNSt3__14pairINS_12basic_stringIcNS_11char_traitsIcEENS_9allocatorIcEEEE7ChannelED1Ev, symObjAddr: 0x8918, symBinAddr: 0x10002BA64, symSize: 0x2C }
  - { offsetInCU: 0x14039, offset: 0x2E418, size: 0x8, addend: 0x0, symName: __ZN6Server15greetJoinedUserER6ClientR7Channel, symObjAddr: 0x8944, symBinAddr: 0x10002BA90, symSize: 0x19E4 }
  - { offsetInCU: 0x14094, offset: 0x2E473, size: 0x8, addend: 0x0, symName: __ZNSt3__112basic_stringIcNS_11char_traitsIcEENS_9allocatorIcEEEpLB8ue170006ERKS5_, symObjAddr: 0xA908, symBinAddr: 0x10002DA54, symSize: 0x2C }
  - { offsetInCU: 0x140C9, offset: 0x2E4A8, size: 0x8, addend: 0x0, symName: __ZN7Channel12getUsersListEv, symObjAddr: 0xAC10, symBinAddr: 0x10002DD5C, symSize: 0x7E4 }
  - { offsetInCU: 0x14149, offset: 0x2E528, size: 0x8, addend: 0x0, symName: __ZNSt3__120__map_const_iteratorINS_21__tree_const_iteratorINS_12__value_typeINS_12basic_stringIcNS_11char_traitsIcEENS_9allocatorIcEEEEP6ClientEEPNS_11__tree_nodeISB_PvEElEEEC1B8ue170006ENS_14__map_iteratorINS_15__tree_iteratorISB_SF_lEEEE, symObjAddr: 0xB3F4, symBinAddr: 0x10002E540, symSize: 0x238 }
  - { offsetInCU: 0x14187, offset: 0x2E566, size: 0x8, addend: 0x0, symName: __ZNKSt3__120__map_const_iteratorINS_21__tree_const_iteratorINS_12__value_typeINS_12basic_stringIcNS_11char_traitsIcEENS_9allocatorIcEEEEP6ClientEEPNS_11__tree_nodeISB_PvEElEEEptB8ue170006Ev, symObjAddr: 0xB65C, symBinAddr: 0x10002E7A8, symSize: 0x2C }
  - { offsetInCU: 0x141AD, offset: 0x2E58C, size: 0x8, addend: 0x0, symName: __ZNSt3__112basic_stringIcNS_11char_traitsIcEENS_9allocatorIcEEEpLB8ue170006EPKc, symObjAddr: 0xB688, symBinAddr: 0x10002E7D4, symSize: 0x2C }
  - { offsetInCU: 0x141E2, offset: 0x2E5C1, size: 0x8, addend: 0x0, symName: __ZNSt3__120__map_const_iteratorINS_21__tree_const_iteratorINS_12__value_typeINS_12basic_stringIcNS_11char_traitsIcEENS_9allocatorIcEEEEP6ClientEEPNS_11__tree_nodeISB_PvEElEEEppB8ue170006Ev, symObjAddr: 0xB6B4, symBinAddr: 0x10002E800, symSize: 0x2C }
  - { offsetInCU: 0x14208, offset: 0x2E5E7, size: 0x8, addend: 0x0, symName: __ZNSt3__14pairINS_12basic_stringIcNS_11char_traitsIcEENS_9allocatorIcEEEE7ChannelED2Ev, symObjAddr: 0xB754, symBinAddr: 0x10002E82C, symSize: 0x74 }
  - { offsetInCU: 0x14244, offset: 0x2E623, size: 0x8, addend: 0x0, symName: __ZNSt3__13mapINS_12basic_stringIcNS_11char_traitsIcEENS_9allocatorIcEEEEP6ClientNS_4lessIS6_EENS4_INS_4pairIKS6_S8_EEEEEC2B8ue170006Ev, symObjAddr: 0xC210, symBinAddr: 0x10002E8A0, symSize: 0x1E8 }
  - { offsetInCU: 0x1426F, offset: 0x2E64E, size: 0x8, addend: 0x0, symName: __ZNSt3__119__map_value_compareINS_12basic_stringIcNS_11char_traitsIcEENS_9allocatorIcEEEENS_12__value_typeIS6_P6ClientEENS_4lessIS6_EELb1EEC1B8ue170006ESC_, symObjAddr: 0xC3F8, symBinAddr: 0x10002EA88, symSize: 0x2C }
  - { offsetInCU: 0x142A8, offset: 0x2E687, size: 0x8, addend: 0x0, symName: __ZNSt3__16__treeINS_12__value_typeINS_12basic_stringIcNS_11char_traitsIcEENS_9allocatorIcEEEEP6ClientEENS_19__map_value_compareIS7_SA_NS_4lessIS7_EELb1EEENS5_ISA_EEEC1ERKSE_, symObjAddr: 0xC424, symBinAddr: 0x10002EAB4, symSize: 0x34 }
  - { offsetInCU: 0x142E3, offset: 0x2E6C2, size: 0x8, addend: 0x0, symName: __ZNSt3__119__map_value_compareINS_12basic_stringIcNS_11char_traitsIcEENS_9allocatorIcEEEENS_12__value_typeIS6_P6ClientEENS_4lessIS6_EELb1EEC2B8ue170006ESC_, symObjAddr: 0xC458, symBinAddr: 0x10002EAE8, symSize: 0x14 }
  - { offsetInCU: 0x1431C, offset: 0x2E6FB, size: 0x8, addend: 0x0, symName: __ZNSt3__16__treeINS_12__value_typeINS_12basic_stringIcNS_11char_traitsIcEENS_9allocatorIcEEEEP6ClientEENS_19__map_value_compareIS7_SA_NS_4lessIS7_EELb1EEENS5_ISA_EEEC2ERKSE_, symObjAddr: 0xC46C, symBinAddr: 0x10002EAFC, symSize: 0x2B4 }
  - { offsetInCU: 0x14359, offset: 0x2E738, size: 0x8, addend: 0x0, symName: __ZNSt3__117__compressed_pairINS_15__tree_end_nodeIPNS_16__tree_node_baseIPvEEEENS_9allocatorINS_11__tree_nodeINS_12__value_typeINS_12basic_stringIcNS_11char_traitsIcEENS7_IcEEEEP6ClientEES3_EEEEEC1B8ue170006ILb1EvEEv, symObjAddr: 0xC720, symBinAddr: 0x10002EDB0, symSize: 0x2C }
  - { offsetInCU: 0x14394, offset: 0x2E773, size: 0x8, addend: 0x0, symName: __ZNSt3__117__compressed_pairImNS_19__map_value_compareINS_12basic_stringIcNS_11char_traitsIcEENS_9allocatorIcEEEENS_12__value_typeIS7_P6ClientEENS_4lessIS7_EELb1EEEEC1B8ue170006IiRKSE_EEOT_OT0_, symObjAddr: 0xC74C, symBinAddr: 0x10002EDDC, symSize: 0x3C }
  - { offsetInCU: 0x143EC, offset: 0x2E7CB, size: 0x8, addend: 0x0, symName: __ZNSt3__16__treeINS_12__value_typeINS_12basic_stringIcNS_11char_traitsIcEENS_9allocatorIcEEEEP6ClientEENS_19__map_value_compareIS7_SA_NS_4lessIS7_EELb1EEENS5_ISA_EEE10__end_nodeB8ue170006Ev, symObjAddr: 0xC788, symBinAddr: 0x10002EE18, symSize: 0x2C }
  - { offsetInCU: 0x14412, offset: 0x2E7F1, size: 0x8, addend: 0x0, symName: __ZNSt3__16__treeINS_12__value_typeINS_12basic_stringIcNS_11char_traitsIcEENS_9allocatorIcEEEEP6ClientEENS_19__map_value_compareIS7_SA_NS_4lessIS7_EELb1EEENS5_ISA_EEE12__begin_nodeB8ue170006Ev, symObjAddr: 0xC7B4, symBinAddr: 0x10002EE44, symSize: 0x14 }
  - { offsetInCU: 0x14438, offset: 0x2E817, size: 0x8, addend: 0x0, symName: __ZNSt3__117__compressed_pairINS_15__tree_end_nodeIPNS_16__tree_node_baseIPvEEEENS_9allocatorINS_11__tree_nodeINS_12__value_typeINS_12basic_stringIcNS_11char_traitsIcEENS7_IcEEEEP6ClientEES3_EEEEEC2B8ue170006ILb1EvEEv, symObjAddr: 0xC7C8, symBinAddr: 0x10002EE58, symSize: 0x34 }
  - { offsetInCU: 0x1446D, offset: 0x2E84C, size: 0x8, addend: 0x0, symName: __ZNSt3__122__compressed_pair_elemINS_9allocatorINS_11__tree_nodeINS_12__value_typeINS_12basic_stringIcNS_11char_traitsIcEENS1_IcEEEEP6ClientEEPvEEEELi1ELb1EEC2B8ue170006ENS_16__value_init_tagE, symObjAddr: 0xC828, symBinAddr: 0x10002EE8C, symSize: 0x2C }
  - { offsetInCU: 0x144A2, offset: 0x2E881, size: 0x8, addend: 0x0, symName: __ZNSt3__19allocatorINS_11__tree_nodeINS_12__value_typeINS_12basic_stringIcNS_11char_traitsIcEENS0_IcEEEEP6ClientEEPvEEEC2B8ue170006Ev, symObjAddr: 0xC8E0, symBinAddr: 0x10002EEB8, symSize: 0x2C }
  - { offsetInCU: 0x144CC, offset: 0x2E8AB, size: 0x8, addend: 0x0, symName: __ZNSt3__116__non_trivial_ifILb1ENS_9allocatorINS_11__tree_nodeINS_12__value_typeINS_12basic_stringIcNS_11char_traitsIcEENS1_IcEEEEP6ClientEEPvEEEEEC2B8ue170006Ev, symObjAddr: 0xC90C, symBinAddr: 0x10002EEE4, symSize: 0x14 }
  - { offsetInCU: 0x144F6, offset: 0x2E8D5, size: 0x8, addend: 0x0, symName: __ZNSt3__117__compressed_pairImNS_19__map_value_compareINS_12basic_stringIcNS_11char_traitsIcEENS_9allocatorIcEEEENS_12__value_typeIS7_P6ClientEENS_4lessIS7_EELb1EEEEC2B8ue170006IiRKSE_EEOT_OT0_, symObjAddr: 0xC920, symBinAddr: 0x10002EEF8, symSize: 0x44 }
  - { offsetInCU: 0x1454E, offset: 0x2E92D, size: 0x8, addend: 0x0, symName: __ZNSt3__122__compressed_pair_elemINS_19__map_value_compareINS_12basic_stringIcNS_11char_traitsIcEENS_9allocatorIcEEEENS_12__value_typeIS7_P6ClientEENS_4lessIS7_EELb1EEELi1ELb1EEC2B8ue170006IRKSE_vEEOT_, symObjAddr: 0xCA3C, symBinAddr: 0x10002EF3C, symSize: 0x18 }
  - { offsetInCU: 0x14590, offset: 0x2E96F, size: 0x8, addend: 0x0, symName: __ZNSt3__117__compressed_pairINS_15__tree_end_nodeIPNS_16__tree_node_baseIPvEEEENS_9allocatorINS_11__tree_nodeINS_12__value_typeINS_12basic_stringIcNS_11char_traitsIcEENS7_IcEEEEP6ClientEES3_EEEEE5firstB8ue170006Ev, symObjAddr: 0xCA68, symBinAddr: 0x10002EF54, symSize: 0x24 }
  - { offsetInCU: 0x145B6, offset: 0x2E995, size: 0x8, addend: 0x0, symName: __ZNSt3__13mapIcbNS_4lessIcEENS_9allocatorINS_4pairIKcbEEEEEC2B8ue170006Ev, symObjAddr: 0xCAA0, symBinAddr: 0x10002EF78, symSize: 0x1E8 }
  - { offsetInCU: 0x145E1, offset: 0x2E9C0, size: 0x8, addend: 0x0, symName: __ZNSt3__119__map_value_compareIcNS_12__value_typeIcbEENS_4lessIcEELb1EEC1B8ue170006ES4_, symObjAddr: 0xCC88, symBinAddr: 0x10002F160, symSize: 0x2C }
  - { offsetInCU: 0x1461A, offset: 0x2E9F9, size: 0x8, addend: 0x0, symName: __ZNSt3__16__treeINS_12__value_typeIcbEENS_19__map_value_compareIcS2_NS_4lessIcEELb1EEENS_9allocatorIS2_EEEC1ERKS6_, symObjAddr: 0xCCB4, symBinAddr: 0x10002F18C, symSize: 0x34 }
  - { offsetInCU: 0x14655, offset: 0x2EA34, size: 0x8, addend: 0x0, symName: __ZNSt3__119__map_value_compareIcNS_12__value_typeIcbEENS_4lessIcEELb1EEC2B8ue170006ES4_, symObjAddr: 0xCCE8, symBinAddr: 0x10002F1C0, symSize: 0x14 }
  - { offsetInCU: 0x1468E, offset: 0x2EA6D, size: 0x8, addend: 0x0, symName: __ZNSt3__16__treeINS_12__value_typeIcbEENS_19__map_value_compareIcS2_NS_4lessIcEELb1EEENS_9allocatorIS2_EEEC2ERKS6_, symObjAddr: 0xCCFC, symBinAddr: 0x10002F1D4, symSize: 0x2B4 }
  - { offsetInCU: 0x146CB, offset: 0x2EAAA, size: 0x8, addend: 0x0, symName: __ZNSt3__117__compressed_pairINS_15__tree_end_nodeIPNS_16__tree_node_baseIPvEEEENS_9allocatorINS_11__tree_nodeINS_12__value_typeIcbEES3_EEEEEC1B8ue170006ILb1EvEEv, symObjAddr: 0xCFB0, symBinAddr: 0x10002F488, symSize: 0x2C }
  - { offsetInCU: 0x14700, offset: 0x2EADF, size: 0x8, addend: 0x0, symName: __ZNSt3__117__compressed_pairImNS_19__map_value_compareIcNS_12__value_typeIcbEENS_4lessIcEELb1EEEEC1B8ue170006IiRKS6_EEOT_OT0_, symObjAddr: 0xCFDC, symBinAddr: 0x10002F4B4, symSize: 0x3C }
  - { offsetInCU: 0x14758, offset: 0x2EB37, size: 0x8, addend: 0x0, symName: __ZNSt3__16__treeINS_12__value_typeIcbEENS_19__map_value_compareIcS2_NS_4lessIcEELb1EEENS_9allocatorIS2_EEE10__end_nodeB8ue170006Ev, symObjAddr: 0xD018, symBinAddr: 0x10002F4F0, symSize: 0x2C }
  - { offsetInCU: 0x1477E, offset: 0x2EB5D, size: 0x8, addend: 0x0, symName: __ZNSt3__16__treeINS_12__value_typeIcbEENS_19__map_value_compareIcS2_NS_4lessIcEELb1EEENS_9allocatorIS2_EEE12__begin_nodeB8ue170006Ev, symObjAddr: 0xD044, symBinAddr: 0x10002F51C, symSize: 0x14 }
  - { offsetInCU: 0x147A4, offset: 0x2EB83, size: 0x8, addend: 0x0, symName: __ZNSt3__117__compressed_pairINS_15__tree_end_nodeIPNS_16__tree_node_baseIPvEEEENS_9allocatorINS_11__tree_nodeINS_12__value_typeIcbEES3_EEEEEC2B8ue170006ILb1EvEEv, symObjAddr: 0xD058, symBinAddr: 0x10002F530, symSize: 0x34 }
  - { offsetInCU: 0x147D9, offset: 0x2EBB8, size: 0x8, addend: 0x0, symName: __ZNSt3__122__compressed_pair_elemINS_9allocatorINS_11__tree_nodeINS_12__value_typeIcbEEPvEEEELi1ELb1EEC2B8ue170006ENS_16__value_init_tagE, symObjAddr: 0xD08C, symBinAddr: 0x10002F564, symSize: 0x2C }
  - { offsetInCU: 0x1480E, offset: 0x2EBED, size: 0x8, addend: 0x0, symName: __ZNSt3__19allocatorINS_11__tree_nodeINS_12__value_typeIcbEEPvEEEC2B8ue170006Ev, symObjAddr: 0xD0B8, symBinAddr: 0x10002F590, symSize: 0x2C }
  - { offsetInCU: 0x14838, offset: 0x2EC17, size: 0x8, addend: 0x0, symName: __ZNSt3__116__non_trivial_ifILb1ENS_9allocatorINS_11__tree_nodeINS_12__value_typeIcbEEPvEEEEEC2B8ue170006Ev, symObjAddr: 0xD0E4, symBinAddr: 0x10002F5BC, symSize: 0x14 }
  - { offsetInCU: 0x14862, offset: 0x2EC41, size: 0x8, addend: 0x0, symName: __ZNSt3__117__compressed_pairImNS_19__map_value_compareIcNS_12__value_typeIcbEENS_4lessIcEELb1EEEEC2B8ue170006IiRKS6_EEOT_OT0_, symObjAddr: 0xD0F8, symBinAddr: 0x10002F5D0, symSize: 0x44 }
  - { offsetInCU: 0x148BA, offset: 0x2EC99, size: 0x8, addend: 0x0, symName: __ZNSt3__122__compressed_pair_elemINS_19__map_value_compareIcNS_12__value_typeIcbEENS_4lessIcEELb1EEELi1ELb1EEC2B8ue170006IRKS6_vEEOT_, symObjAddr: 0xD13C, symBinAddr: 0x10002F614, symSize: 0x18 }
  - { offsetInCU: 0x148FC, offset: 0x2ECDB, size: 0x8, addend: 0x0, symName: __ZNSt3__117__compressed_pairINS_15__tree_end_nodeIPNS_16__tree_node_baseIPvEEEENS_9allocatorINS_11__tree_nodeINS_12__value_typeIcbEES3_EEEEE5firstB8ue170006Ev, symObjAddr: 0xD154, symBinAddr: 0x10002F62C, symSize: 0x24 }
  - { offsetInCU: 0x14922, offset: 0x2ED01, size: 0x8, addend: 0x0, symName: __ZNSt3__13mapINS_12basic_stringIcNS_11char_traitsIcEENS_9allocatorIcEEEEP6ClientNS_4lessIS6_EENS4_INS_4pairIKS6_S8_EEEEED2B8ue170006Ev, symObjAddr: 0xD178, symBinAddr: 0x10002F650, symSize: 0x2C }
  - { offsetInCU: 0x1494C, offset: 0x2ED2B, size: 0x8, addend: 0x0, symName: __ZNSt3__16__treeINS_12__value_typeINS_12basic_stringIcNS_11char_traitsIcEENS_9allocatorIcEEEEP6ClientEENS_19__map_value_compareIS7_SA_NS_4lessIS7_EELb1EEENS5_ISA_EEED1Ev, symObjAddr: 0xD1A4, symBinAddr: 0x10002F67C, symSize: 0x2C }
  - { offsetInCU: 0x14978, offset: 0x2ED57, size: 0x8, addend: 0x0, symName: __ZNSt3__16__treeINS_12__value_typeINS_12basic_stringIcNS_11char_traitsIcEENS_9allocatorIcEEEEP6ClientEENS_19__map_value_compareIS7_SA_NS_4lessIS7_EELb1EEENS5_ISA_EEED2Ev, symObjAddr: 0xD1D0, symBinAddr: 0x10002F6A8, symSize: 0x38 }
  - { offsetInCU: 0x149A4, offset: 0x2ED83, size: 0x8, addend: 0x0, symName: __ZNSt3__16__treeINS_12__value_typeINS_12basic_stringIcNS_11char_traitsIcEENS_9allocatorIcEEEEP6ClientEENS_19__map_value_compareIS7_SA_NS_4lessIS7_EELb1EEENS5_ISA_EEE7destroyEPNS_11__tree_nodeISA_PvEE, symObjAddr: 0xD208, symBinAddr: 0x10002F6E0, symSize: 0x148 }
  - { offsetInCU: 0x149F9, offset: 0x2EDD8, size: 0x8, addend: 0x0, symName: __ZNKSt3__16__treeINS_12__value_typeINS_12basic_stringIcNS_11char_traitsIcEENS_9allocatorIcEEEEP6ClientEENS_19__map_value_compareIS7_SA_NS_4lessIS7_EELb1EEENS5_ISA_EEE6__rootB8ue170006Ev, symObjAddr: 0xD350, symBinAddr: 0x10002F828, symSize: 0x6C }
  - { offsetInCU: 0x14A1F, offset: 0x2EDFE, size: 0x8, addend: 0x0, symName: __ZNSt3__16__treeINS_12__value_typeINS_12basic_stringIcNS_11char_traitsIcEENS_9allocatorIcEEEEP6ClientEENS_19__map_value_compareIS7_SA_NS_4lessIS7_EELb1EEENS5_ISA_EEE12__node_allocB8ue170006Ev, symObjAddr: 0xD3BC, symBinAddr: 0x10002F894, symSize: 0x28 }
  - { offsetInCU: 0x14A45, offset: 0x2EE24, size: 0x8, addend: 0x0, symName: __ZNSt3__116allocator_traitsINS_9allocatorINS_11__tree_nodeINS_12__value_typeINS_12basic_stringIcNS_11char_traitsIcEENS1_IcEEEEP6ClientEEPvEEEEE7destroyB8ue170006INS_4pairIKS8_SA_EEvvEEvRSE_PT_, symObjAddr: 0xD3E4, symBinAddr: 0x10002F8BC, symSize: 0x28 }
  - { offsetInCU: 0x14A7F, offset: 0x2EE5E, size: 0x8, addend: 0x0, symName: __ZNSt3__122__tree_key_value_typesINS_12__value_typeINS_12basic_stringIcNS_11char_traitsIcEENS_9allocatorIcEEEEP6ClientEEE9__get_ptrB8ue170006ERSA_, symObjAddr: 0xD40C, symBinAddr: 0x10002F8E4, symSize: 0x24 }
  - { offsetInCU: 0x14AA3, offset: 0x2EE82, size: 0x8, addend: 0x0, symName: __ZNSt3__116allocator_traitsINS_9allocatorINS_11__tree_nodeINS_12__value_typeINS_12basic_stringIcNS_11char_traitsIcEENS1_IcEEEEP6ClientEEPvEEEEE10deallocateB8ue170006ERSE_PSD_m, symObjAddr: 0xD430, symBinAddr: 0x10002F908, symSize: 0x34 }
  - { offsetInCU: 0x14AE5, offset: 0x2EEC4, size: 0x8, addend: 0x0, symName: __ZNSt3__117__compressed_pairINS_15__tree_end_nodeIPNS_16__tree_node_baseIPvEEEENS_9allocatorINS_11__tree_nodeINS_12__value_typeINS_12basic_stringIcNS_11char_traitsIcEENS7_IcEEEEP6ClientEES3_EEEEE6secondB8ue170006Ev, symObjAddr: 0xD464, symBinAddr: 0x10002F93C, symSize: 0x24 }
  - { offsetInCU: 0x14B0B, offset: 0x2EEEA, size: 0x8, addend: 0x0, symName: __ZNSt3__122__compressed_pair_elemINS_9allocatorINS_11__tree_nodeINS_12__value_typeINS_12basic_stringIcNS_11char_traitsIcEENS1_IcEEEEP6ClientEEPvEEEELi1ELb1EE5__getB8ue170006Ev, symObjAddr: 0xD488, symBinAddr: 0x10002F960, symSize: 0x14 }
  - { offsetInCU: 0x14B31, offset: 0x2EF10, size: 0x8, addend: 0x0, symName: __ZNSt3__14pairIKNS_12basic_stringIcNS_11char_traitsIcEENS_9allocatorIcEEEEP6ClientED1Ev, symObjAddr: 0xD49C, symBinAddr: 0x10002F974, symSize: 0x2C }
  - { offsetInCU: 0x14B5D, offset: 0x2EF3C, size: 0x8, addend: 0x0, symName: __ZNSt3__14pairIKNS_12basic_stringIcNS_11char_traitsIcEENS_9allocatorIcEEEEP6ClientED2Ev, symObjAddr: 0xD4C8, symBinAddr: 0x10002F9A0, symSize: 0x2C }
  - { offsetInCU: 0x14B89, offset: 0x2EF68, size: 0x8, addend: 0x0, symName: __ZNSt3__112__value_typeINS_12basic_stringIcNS_11char_traitsIcEENS_9allocatorIcEEEEP6ClientE11__get_valueB8ue170006Ev, symObjAddr: 0xD4F4, symBinAddr: 0x10002F9CC, symSize: 0x14 }
  - { offsetInCU: 0x14BAF, offset: 0x2EF8E, size: 0x8, addend: 0x0, symName: __ZNSt3__19allocatorINS_11__tree_nodeINS_12__value_typeINS_12basic_stringIcNS_11char_traitsIcEENS0_IcEEEEP6ClientEEPvEEE10deallocateB8ue170006EPSC_m, symObjAddr: 0xD508, symBinAddr: 0x10002F9E0, symSize: 0x7C }
  - { offsetInCU: 0x14BF1, offset: 0x2EFD0, size: 0x8, addend: 0x0, symName: __ZNKSt3__16__treeINS_12__value_typeINS_12basic_stringIcNS_11char_traitsIcEENS_9allocatorIcEEEEP6ClientEENS_19__map_value_compareIS7_SA_NS_4lessIS7_EELb1EEENS5_ISA_EEE10__end_nodeB8ue170006Ev, symObjAddr: 0xD600, symBinAddr: 0x10002FA5C, symSize: 0x2C }
  - { offsetInCU: 0x14C17, offset: 0x2EFF6, size: 0x8, addend: 0x0, symName: __ZNKSt3__117__compressed_pairINS_15__tree_end_nodeIPNS_16__tree_node_baseIPvEEEENS_9allocatorINS_11__tree_nodeINS_12__value_typeINS_12basic_stringIcNS_11char_traitsIcEENS7_IcEEEEP6ClientEES3_EEEEE5firstB8ue170006Ev, symObjAddr: 0xD62C, symBinAddr: 0x10002FA88, symSize: 0x24 }
  - { offsetInCU: 0x14C3D, offset: 0x2F01C, size: 0x8, addend: 0x0, symName: __ZNSt3__13mapIcbNS_4lessIcEENS_9allocatorINS_4pairIKcbEEEEED2B8ue170006Ev, symObjAddr: 0xD664, symBinAddr: 0x10002FAAC, symSize: 0x2C }
  - { offsetInCU: 0x14C67, offset: 0x2F046, size: 0x8, addend: 0x0, symName: __ZNSt3__16__treeINS_12__value_typeIcbEENS_19__map_value_compareIcS2_NS_4lessIcEELb1EEENS_9allocatorIS2_EEED1Ev, symObjAddr: 0xD690, symBinAddr: 0x10002FAD8, symSize: 0x2C }
  - { offsetInCU: 0x14C93, offset: 0x2F072, size: 0x8, addend: 0x0, symName: __ZNSt3__16__treeINS_12__value_typeIcbEENS_19__map_value_compareIcS2_NS_4lessIcEELb1EEENS_9allocatorIS2_EEED2Ev, symObjAddr: 0xD6BC, symBinAddr: 0x10002FB04, symSize: 0x38 }
  - { offsetInCU: 0x14CBF, offset: 0x2F09E, size: 0x8, addend: 0x0, symName: __ZNSt3__16__treeINS_12__value_typeIcbEENS_19__map_value_compareIcS2_NS_4lessIcEELb1EEENS_9allocatorIS2_EEE7destroyEPNS_11__tree_nodeIS2_PvEE, symObjAddr: 0xD6F4, symBinAddr: 0x10002FB3C, symSize: 0x148 }
  - { offsetInCU: 0x14D14, offset: 0x2F0F3, size: 0x8, addend: 0x0, symName: __ZNKSt3__16__treeINS_12__value_typeIcbEENS_19__map_value_compareIcS2_NS_4lessIcEELb1EEENS_9allocatorIS2_EEE6__rootB8ue170006Ev, symObjAddr: 0xD83C, symBinAddr: 0x10002FC84, symSize: 0x6C }
  - { offsetInCU: 0x14D3A, offset: 0x2F119, size: 0x8, addend: 0x0, symName: __ZNSt3__16__treeINS_12__value_typeIcbEENS_19__map_value_compareIcS2_NS_4lessIcEELb1EEENS_9allocatorIS2_EEE12__node_allocB8ue170006Ev, symObjAddr: 0xD8A8, symBinAddr: 0x10002FCF0, symSize: 0x28 }
  - { offsetInCU: 0x14D60, offset: 0x2F13F, size: 0x8, addend: 0x0, symName: __ZNSt3__116allocator_traitsINS_9allocatorINS_11__tree_nodeINS_12__value_typeIcbEEPvEEEEE7destroyB8ue170006INS_4pairIKcbEEvvEEvRS7_PT_, symObjAddr: 0xD8D0, symBinAddr: 0x10002FD18, symSize: 0x14 }
  - { offsetInCU: 0x14D9A, offset: 0x2F179, size: 0x8, addend: 0x0, symName: __ZNSt3__122__tree_key_value_typesINS_12__value_typeIcbEEE9__get_ptrB8ue170006ERS2_, symObjAddr: 0xD8E4, symBinAddr: 0x10002FD2C, symSize: 0x24 }
  - { offsetInCU: 0x14DBE, offset: 0x2F19D, size: 0x8, addend: 0x0, symName: __ZNSt3__116allocator_traitsINS_9allocatorINS_11__tree_nodeINS_12__value_typeIcbEEPvEEEEE10deallocateB8ue170006ERS7_PS6_m, symObjAddr: 0xD908, symBinAddr: 0x10002FD50, symSize: 0x34 }
  - { offsetInCU: 0x14E00, offset: 0x2F1DF, size: 0x8, addend: 0x0, symName: __ZNSt3__117__compressed_pairINS_15__tree_end_nodeIPNS_16__tree_node_baseIPvEEEENS_9allocatorINS_11__tree_nodeINS_12__value_typeIcbEES3_EEEEE6secondB8ue170006Ev, symObjAddr: 0xD93C, symBinAddr: 0x10002FD84, symSize: 0x24 }
  - { offsetInCU: 0x14E26, offset: 0x2F205, size: 0x8, addend: 0x0, symName: __ZNSt3__122__compressed_pair_elemINS_9allocatorINS_11__tree_nodeINS_12__value_typeIcbEEPvEEEELi1ELb1EE5__getB8ue170006Ev, symObjAddr: 0xD960, symBinAddr: 0x10002FDA8, symSize: 0x14 }
  - { offsetInCU: 0x14E4C, offset: 0x2F22B, size: 0x8, addend: 0x0, symName: __ZNSt3__112__value_typeIcbE11__get_valueB8ue170006Ev, symObjAddr: 0xD974, symBinAddr: 0x10002FDBC, symSize: 0x14 }
  - { offsetInCU: 0x14E72, offset: 0x2F251, size: 0x8, addend: 0x0, symName: __ZNSt3__19allocatorINS_11__tree_nodeINS_12__value_typeIcbEEPvEEE10deallocateB8ue170006EPS5_m, symObjAddr: 0xD988, symBinAddr: 0x10002FDD0, symSize: 0x7C }
  - { offsetInCU: 0x14EB4, offset: 0x2F293, size: 0x8, addend: 0x0, symName: __ZNKSt3__16__treeINS_12__value_typeIcbEENS_19__map_value_compareIcS2_NS_4lessIcEELb1EEENS_9allocatorIS2_EEE10__end_nodeB8ue170006Ev, symObjAddr: 0xDA04, symBinAddr: 0x10002FE4C, symSize: 0x2C }
  - { offsetInCU: 0x14EDA, offset: 0x2F2B9, size: 0x8, addend: 0x0, symName: __ZNKSt3__117__compressed_pairINS_15__tree_end_nodeIPNS_16__tree_node_baseIPvEEEENS_9allocatorINS_11__tree_nodeINS_12__value_typeIcbEES3_EEEEE5firstB8ue170006Ev, symObjAddr: 0xDA30, symBinAddr: 0x10002FE78, symSize: 0x24 }
  - { offsetInCU: 0x14F00, offset: 0x2F2DF, size: 0x8, addend: 0x0, symName: __ZNSt3__16__treeINS_12__value_typeINS_12basic_stringIcNS_11char_traitsIcEENS_9allocatorIcEEEEP6ClientEENS_19__map_value_compareIS7_SA_NS_4lessIS7_EELb1EEENS5_ISA_EEE12__find_equalIS7_EERPNS_16__tree_node_baseIPvEERPNS_15__tree_end_nodeISL_EERKT_, symObjAddr: 0xDA54, symBinAddr: 0x10002FE9C, symSize: 0x3F0 }
  - { offsetInCU: 0x14F6D, offset: 0x2F34C, size: 0x8, addend: 0x0, symName: __ZNSt3__13mapINS_12basic_stringIcNS_11char_traitsIcEENS_9allocatorIcEEEEP6ClientNS_4lessIS6_EENS4_INS_4pairIKS6_S8_EEEEE25__construct_node_with_keyERSC_, symObjAddr: 0xDE44, symBinAddr: 0x10003028C, symSize: 0x41C }
  - { offsetInCU: 0x14FC7, offset: 0x2F3A6, size: 0x8, addend: 0x0, symName: __ZNSt3__16__treeINS_12__value_typeINS_12basic_stringIcNS_11char_traitsIcEENS_9allocatorIcEEEEP6ClientEENS_19__map_value_compareIS7_SA_NS_4lessIS7_EELb1EEENS5_ISA_EEE16__insert_node_atEPNS_15__tree_end_nodeIPNS_16__tree_node_baseIPvEEEERSL_SL_, symObjAddr: 0xE260, symBinAddr: 0x1000306A8, symSize: 0x370 }
  - { offsetInCU: 0x1501C, offset: 0x2F3FB, size: 0x8, addend: 0x0, symName: __ZNKSt3__110unique_ptrINS_11__tree_nodeINS_12__value_typeINS_12basic_stringIcNS_11char_traitsIcEENS_9allocatorIcEEEEP6ClientEEPvEENS_21__map_node_destructorINS6_ISD_EEEEE3getB8ue170006Ev, symObjAddr: 0xE5D0, symBinAddr: 0x100030A18, symSize: 0x6C }
  - { offsetInCU: 0x15042, offset: 0x2F421, size: 0x8, addend: 0x0, symName: __ZNSt3__110unique_ptrINS_11__tree_nodeINS_12__value_typeINS_12basic_stringIcNS_11char_traitsIcEENS_9allocatorIcEEEEP6ClientEEPvEENS_21__map_node_destructorINS6_ISD_EEEEE7releaseB8ue170006Ev, symObjAddr: 0xE63C, symBinAddr: 0x100030A84, symSize: 0xB8 }
  - { offsetInCU: 0x15077, offset: 0x2F456, size: 0x8, addend: 0x0, symName: __ZNSt3__110unique_ptrINS_11__tree_nodeINS_12__value_typeINS_12basic_stringIcNS_11char_traitsIcEENS_9allocatorIcEEEEP6ClientEEPvEENS_21__map_node_destructorINS6_ISD_EEEEED1B8ue170006Ev, symObjAddr: 0xE6F4, symBinAddr: 0x100030B3C, symSize: 0x2C }
  - { offsetInCU: 0x150A1, offset: 0x2F480, size: 0x8, addend: 0x0, symName: __ZNKSt3__16__treeINS_12__value_typeINS_12basic_stringIcNS_11char_traitsIcEENS_9allocatorIcEEEEP6ClientEENS_19__map_value_compareIS7_SA_NS_4lessIS7_EELb1EEENS5_ISA_EEE10__root_ptrB8ue170006Ev, symObjAddr: 0xE720, symBinAddr: 0x100030B68, symSize: 0x24 }
  - { offsetInCU: 0x150C7, offset: 0x2F4A6, size: 0x8, addend: 0x0, symName: __ZNSt3__16__treeINS_12__value_typeINS_12basic_stringIcNS_11char_traitsIcEENS_9allocatorIcEEEEP6ClientEENS_19__map_value_compareIS7_SA_NS_4lessIS7_EELb1EEENS5_ISA_EEE10value_compB8ue170006Ev, symObjAddr: 0xE744, symBinAddr: 0x100030B8C, symSize: 0x28 }
  - { offsetInCU: 0x150ED, offset: 0x2F4CC, size: 0x8, addend: 0x0, symName: __ZNKSt3__119__map_value_compareINS_12basic_stringIcNS_11char_traitsIcEENS_9allocatorIcEEEENS_12__value_typeIS6_P6ClientEENS_4lessIS6_EELb1EEclB8ue170006ERKS6_RKSA_, symObjAddr: 0xE76C, symBinAddr: 0x100030BB4, symSize: 0x50 }
  - { offsetInCU: 0x15131, offset: 0x2F510, size: 0x8, addend: 0x0, symName: __ZNKSt3__119__map_value_compareINS_12basic_stringIcNS_11char_traitsIcEENS_9allocatorIcEEEENS_12__value_typeIS6_P6ClientEENS_4lessIS6_EELb1EEclB8ue170006ERKSA_RKS6_, symObjAddr: 0xE7BC, symBinAddr: 0x100030C04, symSize: 0x48 }
  - { offsetInCU: 0x15175, offset: 0x2F554, size: 0x8, addend: 0x0, symName: __ZNSt3__117__compressed_pairImNS_19__map_value_compareINS_12basic_stringIcNS_11char_traitsIcEENS_9allocatorIcEEEENS_12__value_typeIS7_P6ClientEENS_4lessIS7_EELb1EEEE6secondB8ue170006Ev, symObjAddr: 0xE804, symBinAddr: 0x100030C4C, symSize: 0x24 }
  - { offsetInCU: 0x1519B, offset: 0x2F57A, size: 0x8, addend: 0x0, symName: __ZNSt3__122__compressed_pair_elemINS_19__map_value_compareINS_12basic_stringIcNS_11char_traitsIcEENS_9allocatorIcEEEENS_12__value_typeIS7_P6ClientEENS_4lessIS7_EELb1EEELi1ELb1EE5__getB8ue170006Ev, symObjAddr: 0xE828, symBinAddr: 0x100030C70, symSize: 0x14 }
  - { offsetInCU: 0x151C1, offset: 0x2F5A0, size: 0x8, addend: 0x0, symName: __ZNKSt3__14lessINS_12basic_stringIcNS_11char_traitsIcEENS_9allocatorIcEEEEEclB8ue170006ERKS6_S9_, symObjAddr: 0xE83C, symBinAddr: 0x100030C84, symSize: 0x34 }
  - { offsetInCU: 0x15205, offset: 0x2F5E4, size: 0x8, addend: 0x0, symName: __ZNKSt3__112__value_typeINS_12basic_stringIcNS_11char_traitsIcEENS_9allocatorIcEEEEP6ClientE11__get_valueB8ue170006Ev, symObjAddr: 0xE870, symBinAddr: 0x100030CB8, symSize: 0x14 }
  - { offsetInCU: 0x1522B, offset: 0x2F60A, size: 0x8, addend: 0x0, symName: __ZNKSt3__112basic_stringIcNS_11char_traitsIcEENS_9allocatorIcEEE7compareB8ue170006ERKS5_, symObjAddr: 0xE8BC, symBinAddr: 0x100030D04, symSize: 0x238 }
  - { offsetInCU: 0x15264, offset: 0x2F643, size: 0x8, addend: 0x0, symName: __ZNKSt3__112basic_stringIcNS_11char_traitsIcEENS_9allocatorIcEEE7compareINS_17basic_string_viewIcS2_EELi0EEEiRKT_, symObjAddr: 0xEAF4, symBinAddr: 0x100030F3C, symSize: 0x51C }
  - { offsetInCU: 0x152F5, offset: 0x2F6D4, size: 0x8, addend: 0x0, symName: __ZNKSt3__112basic_stringIcNS_11char_traitsIcEENS_9allocatorIcEEEcvNS_17basic_string_viewIcS2_EEB8ue170006Ev, symObjAddr: 0xF010, symBinAddr: 0x100031458, symSize: 0x228 }
  - { offsetInCU: 0x1531C, offset: 0x2F6FB, size: 0x8, addend: 0x0, symName: __ZNKSt3__117basic_string_viewIcNS_11char_traitsIcEEE4sizeB8ue170006Ev, symObjAddr: 0xF28C, symBinAddr: 0x100031680, symSize: 0x64 }
  - { offsetInCU: 0x15342, offset: 0x2F721, size: 0x8, addend: 0x0, symName: __ZNSt3__111char_traitsIcE7compareB8ue170006EPKcS3_m, symObjAddr: 0xF2F0, symBinAddr: 0x1000316E4, symSize: 0x64 }
  - { offsetInCU: 0x15381, offset: 0x2F760, size: 0x8, addend: 0x0, symName: __ZNKSt3__117basic_string_viewIcNS_11char_traitsIcEEE4dataB8ue170006Ev, symObjAddr: 0xF37C, symBinAddr: 0x100031748, symSize: 0x60 }
  - { offsetInCU: 0x153A7, offset: 0x2F786, size: 0x8, addend: 0x0, symName: __ZNSt3__117basic_string_viewIcNS_11char_traitsIcEEEC1B8ue170006EPKcm, symObjAddr: 0xF9E4, symBinAddr: 0x1000317A8, symSize: 0x3C }
  - { offsetInCU: 0x153EF, offset: 0x2F7CE, size: 0x8, addend: 0x0, symName: __ZNSt3__117basic_string_viewIcNS_11char_traitsIcEEEC2B8ue170006EPKcm, symObjAddr: 0xFA20, symBinAddr: 0x1000317E4, symSize: 0xBC }
  - { offsetInCU: 0x15437, offset: 0x2F816, size: 0x8, addend: 0x0, symName: __ZNSt3__116allocator_traitsINS_9allocatorINS_11__tree_nodeINS_12__value_typeINS_12basic_stringIcNS_11char_traitsIcEENS1_IcEEEEP6ClientEEPvEEEEE8allocateB8ue170006ERSE_m, symObjAddr: 0xFADC, symBinAddr: 0x1000318A0, symSize: 0x2C }
  - { offsetInCU: 0x1546A, offset: 0x2F849, size: 0x8, addend: 0x0, symName: __ZNSt3__121__map_node_destructorINS_9allocatorINS_11__tree_nodeINS_12__value_typeINS_12basic_stringIcNS_11char_traitsIcEENS1_IcEEEEP6ClientEEPvEEEEEC1B8ue170006ERSE_, symObjAddr: 0xFB08, symBinAddr: 0x1000318CC, symSize: 0x34 }
  - { offsetInCU: 0x154A9, offset: 0x2F888, size: 0x8, addend: 0x0, symName: __ZNSt3__110unique_ptrINS_11__tree_nodeINS_12__value_typeINS_12basic_stringIcNS_11char_traitsIcEENS_9allocatorIcEEEEP6ClientEEPvEENS_21__map_node_destructorINS6_ISD_EEEEEC1B8ue170006ILb1EvEEPSD_NS_16__dependent_typeINS_27__unique_ptr_deleter_sfinaeISG_EEXT_EE20__good_rval_ref_typeE, symObjAddr: 0xFB3C, symBinAddr: 0x100031900, symSize: 0x3C }
  - { offsetInCU: 0x154FA, offset: 0x2F8D9, size: 0x8, addend: 0x0, symName: __ZNSt3__116allocator_traitsINS_9allocatorINS_11__tree_nodeINS_12__value_typeINS_12basic_stringIcNS_11char_traitsIcEENS1_IcEEEEP6ClientEEPvEEEEE9constructB8ue170006IKS8_JRSH_EvEEvRSE_PT_DpOT0_, symObjAddr: 0xFB78, symBinAddr: 0x10003193C, symSize: 0x34 }
  - { offsetInCU: 0x15551, offset: 0x2F930, size: 0x8, addend: 0x0, symName: __ZNKSt3__110unique_ptrINS_11__tree_nodeINS_12__value_typeINS_12basic_stringIcNS_11char_traitsIcEENS_9allocatorIcEEEEP6ClientEEPvEENS_21__map_node_destructorINS6_ISD_EEEEEptB8ue170006Ev, symObjAddr: 0xFBAC, symBinAddr: 0x100031970, symSize: 0x6C }
  - { offsetInCU: 0x15577, offset: 0x2F956, size: 0x8, addend: 0x0, symName: __ZNSt3__110unique_ptrINS_11__tree_nodeINS_12__value_typeINS_12basic_stringIcNS_11char_traitsIcEENS_9allocatorIcEEEEP6ClientEEPvEENS_21__map_node_destructorINS6_ISD_EEEEE11get_deleterB8ue170006Ev, symObjAddr: 0xFC18, symBinAddr: 0x1000319DC, symSize: 0x24 }
  - { offsetInCU: 0x155A2, offset: 0x2F981, size: 0x8, addend: 0x0, symName: __ZNSt3__116allocator_traitsINS_9allocatorINS_11__tree_nodeINS_12__value_typeINS_12basic_stringIcNS_11char_traitsIcEENS1_IcEEEEP6ClientEEPvEEEEE9constructB8ue170006ISA_JEvEEvRSE_PT_DpOT0_, symObjAddr: 0xFC3C, symBinAddr: 0x100031A00, symSize: 0x2C }
  - { offsetInCU: 0x155E4, offset: 0x2F9C3, size: 0x8, addend: 0x0, symName: __ZNSt3__19allocatorINS_11__tree_nodeINS_12__value_typeINS_12basic_stringIcNS_11char_traitsIcEENS0_IcEEEEP6ClientEEPvEEE8allocateB8ue170006Em, symObjAddr: 0xFC68, symBinAddr: 0x100031A2C, symSize: 0x88 }
  - { offsetInCU: 0x15622, offset: 0x2FA01, size: 0x8, addend: 0x0, symName: __ZNSt3__116allocator_traitsINS_9allocatorINS_11__tree_nodeINS_12__value_typeINS_12basic_stringIcNS_11char_traitsIcEENS1_IcEEEEP6ClientEEPvEEEEE8max_sizeB8ue170006ISE_vEEmRKSE_, symObjAddr: 0xFCF0, symBinAddr: 0x100031AB4, symSize: 0x24 }
  - { offsetInCU: 0x15650, offset: 0x2FA2F, size: 0x8, addend: 0x0, symName: __ZNKSt3__19allocatorINS_11__tree_nodeINS_12__value_typeINS_12basic_stringIcNS_11char_traitsIcEENS0_IcEEEEP6ClientEEPvEEE8max_sizeB8ue170006Ev, symObjAddr: 0xFD14, symBinAddr: 0x100031AD8, symSize: 0x14 }
  - { offsetInCU: 0x15676, offset: 0x2FA55, size: 0x8, addend: 0x0, symName: __ZNSt3__121__map_node_destructorINS_9allocatorINS_11__tree_nodeINS_12__value_typeINS_12basic_stringIcNS_11char_traitsIcEENS1_IcEEEEP6ClientEEPvEEEEEC2B8ue170006ERSE_, symObjAddr: 0xFD28, symBinAddr: 0x100031AEC, symSize: 0x12C }
  - { offsetInCU: 0x156AF, offset: 0x2FA8E, size: 0x8, addend: 0x0, symName: __ZNSt3__110unique_ptrINS_11__tree_nodeINS_12__value_typeINS_12basic_stringIcNS_11char_traitsIcEENS_9allocatorIcEEEEP6ClientEEPvEENS_21__map_node_destructorINS6_ISD_EEEEEC2B8ue170006ILb1EvEEPSD_NS_16__dependent_typeINS_27__unique_ptr_deleter_sfinaeISG_EEXT_EE20__good_rval_ref_typeE, symObjAddr: 0xFE54, symBinAddr: 0x100031C18, symSize: 0x230 }
  - { offsetInCU: 0x15706, offset: 0x2FAE5, size: 0x8, addend: 0x0, symName: __ZNSt3__117__compressed_pairIPNS_11__tree_nodeINS_12__value_typeINS_12basic_stringIcNS_11char_traitsIcEENS_9allocatorIcEEEEP6ClientEEPvEENS_21__map_node_destructorINS6_ISD_EEEEEC1B8ue170006IRSE_SH_EEOT_OT0_, symObjAddr: 0x10084, symBinAddr: 0x100031E48, symSize: 0x3C }
  - { offsetInCU: 0x1575E, offset: 0x2FB3D, size: 0x8, addend: 0x0, symName: __ZNSt3__117__compressed_pairIPNS_11__tree_nodeINS_12__value_typeINS_12basic_stringIcNS_11char_traitsIcEENS_9allocatorIcEEEEP6ClientEEPvEENS_21__map_node_destructorINS6_ISD_EEEEEC2B8ue170006IRSE_SH_EEOT_OT0_, symObjAddr: 0x100C0, symBinAddr: 0x100031E84, symSize: 0x48 }
  - { offsetInCU: 0x157B6, offset: 0x2FB95, size: 0x8, addend: 0x0, symName: __ZNSt3__122__compressed_pair_elemIPNS_11__tree_nodeINS_12__value_typeINS_12basic_stringIcNS_11char_traitsIcEENS_9allocatorIcEEEEP6ClientEEPvEELi0ELb0EEC2B8ue170006IRSE_vEEOT_, symObjAddr: 0x10108, symBinAddr: 0x100031ECC, symSize: 0xB0 }
  - { offsetInCU: 0x157F8, offset: 0x2FBD7, size: 0x8, addend: 0x0, symName: __ZNSt3__122__compressed_pair_elemINS_21__map_node_destructorINS_9allocatorINS_11__tree_nodeINS_12__value_typeINS_12basic_stringIcNS_11char_traitsIcEENS2_IcEEEEP6ClientEEPvEEEEEELi1ELb0EEC2B8ue170006ISG_vEEOT_, symObjAddr: 0x101B8, symBinAddr: 0x100031F7C, symSize: 0x38 }
  - { offsetInCU: 0x1583A, offset: 0x2FC19, size: 0x8, addend: 0x0, symName: __ZNSt3__19allocatorINS_11__tree_nodeINS_12__value_typeINS_12basic_stringIcNS_11char_traitsIcEENS0_IcEEEEP6ClientEEPvEEE9constructB8ue170006IKS7_JRSF_EEEvPT_DpOT0_, symObjAddr: 0x101F0, symBinAddr: 0x100031FB4, symSize: 0x30 }
  - { offsetInCU: 0x15890, offset: 0x2FC6F, size: 0x8, addend: 0x0, symName: __ZNKSt3__117__compressed_pairIPNS_11__tree_nodeINS_12__value_typeINS_12basic_stringIcNS_11char_traitsIcEENS_9allocatorIcEEEEP6ClientEEPvEENS_21__map_node_destructorINS6_ISD_EEEEE5firstB8ue170006Ev, symObjAddr: 0x10220, symBinAddr: 0x100031FE4, symSize: 0x24 }
  - { offsetInCU: 0x158B6, offset: 0x2FC95, size: 0x8, addend: 0x0, symName: __ZNKSt3__122__compressed_pair_elemIPNS_11__tree_nodeINS_12__value_typeINS_12basic_stringIcNS_11char_traitsIcEENS_9allocatorIcEEEEP6ClientEEPvEELi0ELb0EE5__getB8ue170006Ev, symObjAddr: 0x10244, symBinAddr: 0x100032008, symSize: 0x14 }
  - { offsetInCU: 0x158DC, offset: 0x2FCBB, size: 0x8, addend: 0x0, symName: __ZNSt3__117__compressed_pairIPNS_11__tree_nodeINS_12__value_typeINS_12basic_stringIcNS_11char_traitsIcEENS_9allocatorIcEEEEP6ClientEEPvEENS_21__map_node_destructorINS6_ISD_EEEEE6secondB8ue170006Ev, symObjAddr: 0x10258, symBinAddr: 0x10003201C, symSize: 0x28 }
  - { offsetInCU: 0x15902, offset: 0x2FCE1, size: 0x8, addend: 0x0, symName: __ZNSt3__122__compressed_pair_elemINS_21__map_node_destructorINS_9allocatorINS_11__tree_nodeINS_12__value_typeINS_12basic_stringIcNS_11char_traitsIcEENS2_IcEEEEP6ClientEEPvEEEEEELi1ELb0EE5__getB8ue170006Ev, symObjAddr: 0x10280, symBinAddr: 0x100032044, symSize: 0x14 }
  - { offsetInCU: 0x15928, offset: 0x2FD07, size: 0x8, addend: 0x0, symName: __ZNSt3__19allocatorINS_11__tree_nodeINS_12__value_typeINS_12basic_stringIcNS_11char_traitsIcEENS0_IcEEEEP6ClientEEPvEEE9constructB8ue170006IS9_JEEEvPT_DpOT0_, symObjAddr: 0x10294, symBinAddr: 0x100032058, symSize: 0x64 }
  - { offsetInCU: 0x1596A, offset: 0x2FD49, size: 0x8, addend: 0x0, symName: __ZNSt3__16__treeINS_12__value_typeINS_12basic_stringIcNS_11char_traitsIcEENS_9allocatorIcEEEEP6ClientEENS_19__map_value_compareIS7_SA_NS_4lessIS7_EELb1EEENS5_ISA_EEE4sizeB8ue170006Ev, symObjAddr: 0x10C8C, symBinAddr: 0x1000320BC, symSize: 0x28 }
  - { offsetInCU: 0x15990, offset: 0x2FD6F, size: 0x8, addend: 0x0, symName: __ZNSt3__117__compressed_pairImNS_19__map_value_compareINS_12basic_stringIcNS_11char_traitsIcEENS_9allocatorIcEEEENS_12__value_typeIS7_P6ClientEENS_4lessIS7_EELb1EEEE5firstB8ue170006Ev, symObjAddr: 0x11520, symBinAddr: 0x1000320E4, symSize: 0x24 }
  - { offsetInCU: 0x159B6, offset: 0x2FD95, size: 0x8, addend: 0x0, symName: __ZNSt3__117__compressed_pairIPNS_11__tree_nodeINS_12__value_typeINS_12basic_stringIcNS_11char_traitsIcEENS_9allocatorIcEEEEP6ClientEEPvEENS_21__map_node_destructorINS6_ISD_EEEEE5firstB8ue170006Ev, symObjAddr: 0x11558, symBinAddr: 0x100032108, symSize: 0x24 }
  - { offsetInCU: 0x159DC, offset: 0x2FDBB, size: 0x8, addend: 0x0, symName: __ZNSt3__122__compressed_pair_elemIPNS_11__tree_nodeINS_12__value_typeINS_12basic_stringIcNS_11char_traitsIcEENS_9allocatorIcEEEEP6ClientEEPvEELi0ELb0EE5__getB8ue170006Ev, symObjAddr: 0x1157C, symBinAddr: 0x10003212C, symSize: 0x14 }
  - { offsetInCU: 0x15A02, offset: 0x2FDE1, size: 0x8, addend: 0x0, symName: __ZNSt3__110unique_ptrINS_11__tree_nodeINS_12__value_typeINS_12basic_stringIcNS_11char_traitsIcEENS_9allocatorIcEEEEP6ClientEEPvEENS_21__map_node_destructorINS6_ISD_EEEEED2B8ue170006Ev, symObjAddr: 0x11590, symBinAddr: 0x100032140, symSize: 0x30 }
  - { offsetInCU: 0x15A2C, offset: 0x2FE0B, size: 0x8, addend: 0x0, symName: __ZNSt3__110unique_ptrINS_11__tree_nodeINS_12__value_typeINS_12basic_stringIcNS_11char_traitsIcEENS_9allocatorIcEEEEP6ClientEEPvEENS_21__map_node_destructorINS6_ISD_EEEEE5resetB8ue170006EPSD_, symObjAddr: 0x115C0, symBinAddr: 0x100032170, symSize: 0xEC }
  - { offsetInCU: 0x15A70, offset: 0x2FE4F, size: 0x8, addend: 0x0, symName: __ZNSt3__121__map_node_destructorINS_9allocatorINS_11__tree_nodeINS_12__value_typeINS_12basic_stringIcNS_11char_traitsIcEENS1_IcEEEEP6ClientEEPvEEEEEclB8ue170006EPSD_, symObjAddr: 0x116AC, symBinAddr: 0x10003225C, symSize: 0x23C }
  - { offsetInCU: 0x15AA5, offset: 0x2FE84, size: 0x8, addend: 0x0, symName: __ZNSt3__116allocator_traitsINS_9allocatorINS_11__tree_nodeINS_12__value_typeINS_12basic_stringIcNS_11char_traitsIcEENS1_IcEEEEP6ClientEEPvEEEEE7destroyB8ue170006ISA_vvEEvRSE_PT_, symObjAddr: 0x118E8, symBinAddr: 0x100032498, symSize: 0x14 }
  - { offsetInCU: 0x15ADF, offset: 0x2FEBE, size: 0x8, addend: 0x0, symName: __ZNSt3__116allocator_traitsINS_9allocatorINS_11__tree_nodeINS_12__value_typeINS_12basic_stringIcNS_11char_traitsIcEENS1_IcEEEEP6ClientEEPvEEEEE7destroyB8ue170006IKS8_vvEEvRSE_PT_, symObjAddr: 0x118FC, symBinAddr: 0x1000324AC, symSize: 0x28 }
  - { offsetInCU: 0x15B19, offset: 0x2FEF8, size: 0x8, addend: 0x0, symName: __ZNSt3__16__treeINS_12__value_typeIcbEENS_19__map_value_compareIcS2_NS_4lessIcEELb1EEENS_9allocatorIS2_EEE12__find_equalIcEERPNS_16__tree_node_baseIPvEERPNS_15__tree_end_nodeISE_EERKT_, symObjAddr: 0x11924, symBinAddr: 0x1000324D4, symSize: 0x3F0 }
  - { offsetInCU: 0x15B86, offset: 0x2FF65, size: 0x8, addend: 0x0, symName: __ZNSt3__13mapIcbNS_4lessIcEENS_9allocatorINS_4pairIKcbEEEEE25__construct_node_with_keyERS5_, symObjAddr: 0x11D14, symBinAddr: 0x1000328C4, symSize: 0x41C }
  - { offsetInCU: 0x15BE0, offset: 0x2FFBF, size: 0x8, addend: 0x0, symName: __ZNSt3__16__treeINS_12__value_typeIcbEENS_19__map_value_compareIcS2_NS_4lessIcEELb1EEENS_9allocatorIS2_EEE16__insert_node_atEPNS_15__tree_end_nodeIPNS_16__tree_node_baseIPvEEEERSE_SE_, symObjAddr: 0x12130, symBinAddr: 0x100032CE0, symSize: 0x370 }
  - { offsetInCU: 0x15C35, offset: 0x30014, size: 0x8, addend: 0x0, symName: __ZNKSt3__110unique_ptrINS_11__tree_nodeINS_12__value_typeIcbEEPvEENS_21__map_node_destructorINS_9allocatorIS5_EEEEE3getB8ue170006Ev, symObjAddr: 0x124A0, symBinAddr: 0x100033050, symSize: 0x6C }
  - { offsetInCU: 0x15C5B, offset: 0x3003A, size: 0x8, addend: 0x0, symName: __ZNSt3__110unique_ptrINS_11__tree_nodeINS_12__value_typeIcbEEPvEENS_21__map_node_destructorINS_9allocatorIS5_EEEEE7releaseB8ue170006Ev, symObjAddr: 0x1250C, symBinAddr: 0x1000330BC, symSize: 0xB8 }
  - { offsetInCU: 0x15C90, offset: 0x3006F, size: 0x8, addend: 0x0, symName: __ZNSt3__110unique_ptrINS_11__tree_nodeINS_12__value_typeIcbEEPvEENS_21__map_node_destructorINS_9allocatorIS5_EEEEED1B8ue170006Ev, symObjAddr: 0x125C4, symBinAddr: 0x100033174, symSize: 0x2C }
  - { offsetInCU: 0x15CBA, offset: 0x30099, size: 0x8, addend: 0x0, symName: __ZNKSt3__16__treeINS_12__value_typeIcbEENS_19__map_value_compareIcS2_NS_4lessIcEELb1EEENS_9allocatorIS2_EEE10__root_ptrB8ue170006Ev, symObjAddr: 0x125F0, symBinAddr: 0x1000331A0, symSize: 0x24 }
  - { offsetInCU: 0x15CE0, offset: 0x300BF, size: 0x8, addend: 0x0, symName: __ZNSt3__16__treeINS_12__value_typeIcbEENS_19__map_value_compareIcS2_NS_4lessIcEELb1EEENS_9allocatorIS2_EEE10value_compB8ue170006Ev, symObjAddr: 0x12614, symBinAddr: 0x1000331C4, symSize: 0x28 }
  - { offsetInCU: 0x15D06, offset: 0x300E5, size: 0x8, addend: 0x0, symName: __ZNKSt3__119__map_value_compareIcNS_12__value_typeIcbEENS_4lessIcEELb1EEclB8ue170006ERKcRKS2_, symObjAddr: 0x1263C, symBinAddr: 0x1000331EC, symSize: 0x50 }
  - { offsetInCU: 0x15D4A, offset: 0x30129, size: 0x8, addend: 0x0, symName: __ZNKSt3__119__map_value_compareIcNS_12__value_typeIcbEENS_4lessIcEELb1EEclB8ue170006ERKS2_RKc, symObjAddr: 0x1268C, symBinAddr: 0x10003323C, symSize: 0x48 }
  - { offsetInCU: 0x15D8E, offset: 0x3016D, size: 0x8, addend: 0x0, symName: __ZNSt3__117__compressed_pairImNS_19__map_value_compareIcNS_12__value_typeIcbEENS_4lessIcEELb1EEEE6secondB8ue170006Ev, symObjAddr: 0x126D4, symBinAddr: 0x100033284, symSize: 0x24 }
  - { offsetInCU: 0x15DB4, offset: 0x30193, size: 0x8, addend: 0x0, symName: __ZNSt3__122__compressed_pair_elemINS_19__map_value_compareIcNS_12__value_typeIcbEENS_4lessIcEELb1EEELi1ELb1EE5__getB8ue170006Ev, symObjAddr: 0x126F8, symBinAddr: 0x1000332A8, symSize: 0x14 }
  - { offsetInCU: 0x15DDA, offset: 0x301B9, size: 0x8, addend: 0x0, symName: __ZNKSt3__14lessIcEclB8ue170006ERKcS3_, symObjAddr: 0x1270C, symBinAddr: 0x1000332BC, symSize: 0x104 }
  - { offsetInCU: 0x15E1E, offset: 0x301FD, size: 0x8, addend: 0x0, symName: __ZNKSt3__112__value_typeIcbE11__get_valueB8ue170006Ev, symObjAddr: 0x12810, symBinAddr: 0x1000333C0, symSize: 0x14 }
  - { offsetInCU: 0x15E44, offset: 0x30223, size: 0x8, addend: 0x0, symName: __ZNSt3__116allocator_traitsINS_9allocatorINS_11__tree_nodeINS_12__value_typeIcbEEPvEEEEE8allocateB8ue170006ERS7_m, symObjAddr: 0x12824, symBinAddr: 0x1000333D4, symSize: 0x2C }
  - { offsetInCU: 0x15E77, offset: 0x30256, size: 0x8, addend: 0x0, symName: __ZNSt3__121__map_node_destructorINS_9allocatorINS_11__tree_nodeINS_12__value_typeIcbEEPvEEEEEC1B8ue170006ERS7_, symObjAddr: 0x12850, symBinAddr: 0x100033400, symSize: 0x34 }
  - { offsetInCU: 0x15EB6, offset: 0x30295, size: 0x8, addend: 0x0, symName: __ZNSt3__110unique_ptrINS_11__tree_nodeINS_12__value_typeIcbEEPvEENS_21__map_node_destructorINS_9allocatorIS5_EEEEEC1B8ue170006ILb1EvEEPS5_NS_16__dependent_typeINS_27__unique_ptr_deleter_sfinaeIS9_EEXT_EE20__good_rval_ref_typeE, symObjAddr: 0x12884, symBinAddr: 0x100033434, symSize: 0x3C }
  - { offsetInCU: 0x15F07, offset: 0x302E6, size: 0x8, addend: 0x0, symName: __ZNSt3__116allocator_traitsINS_9allocatorINS_11__tree_nodeINS_12__value_typeIcbEEPvEEEEE9constructB8ue170006IKcJRSA_EvEEvRS7_PT_DpOT0_, symObjAddr: 0x128C0, symBinAddr: 0x100033470, symSize: 0x34 }
  - { offsetInCU: 0x15F5E, offset: 0x3033D, size: 0x8, addend: 0x0, symName: __ZNKSt3__110unique_ptrINS_11__tree_nodeINS_12__value_typeIcbEEPvEENS_21__map_node_destructorINS_9allocatorIS5_EEEEEptB8ue170006Ev, symObjAddr: 0x128F4, symBinAddr: 0x1000334A4, symSize: 0x6C }
  - { offsetInCU: 0x15F84, offset: 0x30363, size: 0x8, addend: 0x0, symName: __ZNSt3__110unique_ptrINS_11__tree_nodeINS_12__value_typeIcbEEPvEENS_21__map_node_destructorINS_9allocatorIS5_EEEEE11get_deleterB8ue170006Ev, symObjAddr: 0x12960, symBinAddr: 0x100033510, symSize: 0x24 }
  - { offsetInCU: 0x15FAF, offset: 0x3038E, size: 0x8, addend: 0x0, symName: __ZNSt3__116allocator_traitsINS_9allocatorINS_11__tree_nodeINS_12__value_typeIcbEEPvEEEEE9constructB8ue170006IbJEvEEvRS7_PT_DpOT0_, symObjAddr: 0x12984, symBinAddr: 0x100033534, symSize: 0x2C }
  - { offsetInCU: 0x15FF1, offset: 0x303D0, size: 0x8, addend: 0x0, symName: __ZNSt3__19allocatorINS_11__tree_nodeINS_12__value_typeIcbEEPvEEE8allocateB8ue170006Em, symObjAddr: 0x129B0, symBinAddr: 0x100033560, symSize: 0x88 }
  - { offsetInCU: 0x1602F, offset: 0x3040E, size: 0x8, addend: 0x0, symName: __ZNSt3__116allocator_traitsINS_9allocatorINS_11__tree_nodeINS_12__value_typeIcbEEPvEEEEE8max_sizeB8ue170006IS7_vEEmRKS7_, symObjAddr: 0x12A38, symBinAddr: 0x1000335E8, symSize: 0x24 }
  - { offsetInCU: 0x1605D, offset: 0x3043C, size: 0x8, addend: 0x0, symName: __ZNKSt3__19allocatorINS_11__tree_nodeINS_12__value_typeIcbEEPvEEE8max_sizeB8ue170006Ev, symObjAddr: 0x12A5C, symBinAddr: 0x10003360C, symSize: 0x14 }
  - { offsetInCU: 0x16083, offset: 0x30462, size: 0x8, addend: 0x0, symName: __ZNSt3__121__map_node_destructorINS_9allocatorINS_11__tree_nodeINS_12__value_typeIcbEEPvEEEEEC2B8ue170006ERS7_, symObjAddr: 0x12A70, symBinAddr: 0x100033620, symSize: 0x12C }
  - { offsetInCU: 0x160BC, offset: 0x3049B, size: 0x8, addend: 0x0, symName: __ZNSt3__110unique_ptrINS_11__tree_nodeINS_12__value_typeIcbEEPvEENS_21__map_node_destructorINS_9allocatorIS5_EEEEEC2B8ue170006ILb1EvEEPS5_NS_16__dependent_typeINS_27__unique_ptr_deleter_sfinaeIS9_EEXT_EE20__good_rval_ref_typeE, symObjAddr: 0x12B9C, symBinAddr: 0x10003374C, symSize: 0x230 }
  - { offsetInCU: 0x16113, offset: 0x304F2, size: 0x8, addend: 0x0, symName: __ZNSt3__117__compressed_pairIPNS_11__tree_nodeINS_12__value_typeIcbEEPvEENS_21__map_node_destructorINS_9allocatorIS5_EEEEEC1B8ue170006IRS6_SA_EEOT_OT0_, symObjAddr: 0x12DCC, symBinAddr: 0x10003397C, symSize: 0x3C }
  - { offsetInCU: 0x1616B, offset: 0x3054A, size: 0x8, addend: 0x0, symName: __ZNSt3__117__compressed_pairIPNS_11__tree_nodeINS_12__value_typeIcbEEPvEENS_21__map_node_destructorINS_9allocatorIS5_EEEEEC2B8ue170006IRS6_SA_EEOT_OT0_, symObjAddr: 0x12E08, symBinAddr: 0x1000339B8, symSize: 0x48 }
  - { offsetInCU: 0x161C3, offset: 0x305A2, size: 0x8, addend: 0x0, symName: __ZNSt3__122__compressed_pair_elemIPNS_11__tree_nodeINS_12__value_typeIcbEEPvEELi0ELb0EEC2B8ue170006IRS6_vEEOT_, symObjAddr: 0x12E50, symBinAddr: 0x100033A00, symSize: 0xB0 }
  - { offsetInCU: 0x16205, offset: 0x305E4, size: 0x8, addend: 0x0, symName: __ZNSt3__122__compressed_pair_elemINS_21__map_node_destructorINS_9allocatorINS_11__tree_nodeINS_12__value_typeIcbEEPvEEEEEELi1ELb0EEC2B8ue170006IS9_vEEOT_, symObjAddr: 0x12F00, symBinAddr: 0x100033AB0, symSize: 0x38 }
  - { offsetInCU: 0x16247, offset: 0x30626, size: 0x8, addend: 0x0, symName: __ZNSt3__19allocatorINS_11__tree_nodeINS_12__value_typeIcbEEPvEEE9constructB8ue170006IKcJRS8_EEEvPT_DpOT0_, symObjAddr: 0x12F38, symBinAddr: 0x100033AE8, symSize: 0xFC }
  - { offsetInCU: 0x1629D, offset: 0x3067C, size: 0x8, addend: 0x0, symName: __ZNKSt3__117__compressed_pairIPNS_11__tree_nodeINS_12__value_typeIcbEEPvEENS_21__map_node_destructorINS_9allocatorIS5_EEEEE5firstB8ue170006Ev, symObjAddr: 0x13034, symBinAddr: 0x100033BE4, symSize: 0x24 }
  - { offsetInCU: 0x162C3, offset: 0x306A2, size: 0x8, addend: 0x0, symName: __ZNKSt3__122__compressed_pair_elemIPNS_11__tree_nodeINS_12__value_typeIcbEEPvEELi0ELb0EE5__getB8ue170006Ev, symObjAddr: 0x13058, symBinAddr: 0x100033C08, symSize: 0x14 }
  - { offsetInCU: 0x162E9, offset: 0x306C8, size: 0x8, addend: 0x0, symName: __ZNSt3__117__compressed_pairIPNS_11__tree_nodeINS_12__value_typeIcbEEPvEENS_21__map_node_destructorINS_9allocatorIS5_EEEEE6secondB8ue170006Ev, symObjAddr: 0x1306C, symBinAddr: 0x100033C1C, symSize: 0x28 }
  - { offsetInCU: 0x1630F, offset: 0x306EE, size: 0x8, addend: 0x0, symName: __ZNSt3__122__compressed_pair_elemINS_21__map_node_destructorINS_9allocatorINS_11__tree_nodeINS_12__value_typeIcbEEPvEEEEEELi1ELb0EE5__getB8ue170006Ev, symObjAddr: 0x13094, symBinAddr: 0x100033C44, symSize: 0x14 }
  - { offsetInCU: 0x16335, offset: 0x30714, size: 0x8, addend: 0x0, symName: __ZNSt3__19allocatorINS_11__tree_nodeINS_12__value_typeIcbEEPvEEE9constructB8ue170006IbJEEEvPT_DpOT0_, symObjAddr: 0x130A8, symBinAddr: 0x100033C58, symSize: 0x88 }
  - { offsetInCU: 0x16377, offset: 0x30756, size: 0x8, addend: 0x0, symName: __ZNSt3__16__treeINS_12__value_typeIcbEENS_19__map_value_compareIcS2_NS_4lessIcEELb1EEENS_9allocatorIS2_EEE4sizeB8ue170006Ev, symObjAddr: 0x13130, symBinAddr: 0x100033CE0, symSize: 0x28 }
  - { offsetInCU: 0x1639D, offset: 0x3077C, size: 0x8, addend: 0x0, symName: __ZNSt3__117__compressed_pairImNS_19__map_value_compareIcNS_12__value_typeIcbEENS_4lessIcEELb1EEEE5firstB8ue170006Ev, symObjAddr: 0x13158, symBinAddr: 0x100033D08, symSize: 0x24 }
  - { offsetInCU: 0x163C3, offset: 0x307A2, size: 0x8, addend: 0x0, symName: __ZNSt3__117__compressed_pairIPNS_11__tree_nodeINS_12__value_typeIcbEEPvEENS_21__map_node_destructorINS_9allocatorIS5_EEEEE5firstB8ue170006Ev, symObjAddr: 0x1317C, symBinAddr: 0x100033D2C, symSize: 0x24 }
  - { offsetInCU: 0x163E9, offset: 0x307C8, size: 0x8, addend: 0x0, symName: __ZNSt3__122__compressed_pair_elemIPNS_11__tree_nodeINS_12__value_typeIcbEEPvEELi0ELb0EE5__getB8ue170006Ev, symObjAddr: 0x131A0, symBinAddr: 0x100033D50, symSize: 0x14 }
  - { offsetInCU: 0x1640F, offset: 0x307EE, size: 0x8, addend: 0x0, symName: __ZNSt3__110unique_ptrINS_11__tree_nodeINS_12__value_typeIcbEEPvEENS_21__map_node_destructorINS_9allocatorIS5_EEEEED2B8ue170006Ev, symObjAddr: 0x131B4, symBinAddr: 0x100033D64, symSize: 0x30 }
  - { offsetInCU: 0x16439, offset: 0x30818, size: 0x8, addend: 0x0, symName: __ZNSt3__110unique_ptrINS_11__tree_nodeINS_12__value_typeIcbEEPvEENS_21__map_node_destructorINS_9allocatorIS5_EEEEE5resetB8ue170006EPS5_, symObjAddr: 0x131E4, symBinAddr: 0x100033D94, symSize: 0xEC }
  - { offsetInCU: 0x1647D, offset: 0x3085C, size: 0x8, addend: 0x0, symName: __ZNSt3__121__map_node_destructorINS_9allocatorINS_11__tree_nodeINS_12__value_typeIcbEEPvEEEEEclB8ue170006EPS6_, symObjAddr: 0x132D0, symBinAddr: 0x100033E80, symSize: 0x23C }
  - { offsetInCU: 0x164B2, offset: 0x30891, size: 0x8, addend: 0x0, symName: __ZNSt3__116allocator_traitsINS_9allocatorINS_11__tree_nodeINS_12__value_typeIcbEEPvEEEEE7destroyB8ue170006IbvvEEvRS7_PT_, symObjAddr: 0x1350C, symBinAddr: 0x1000340BC, symSize: 0x14 }
  - { offsetInCU: 0x164EC, offset: 0x308CB, size: 0x8, addend: 0x0, symName: __ZNSt3__116allocator_traitsINS_9allocatorINS_11__tree_nodeINS_12__value_typeIcbEEPvEEEEE7destroyB8ue170006IKcvvEEvRS7_PT_, symObjAddr: 0x13520, symBinAddr: 0x1000340D0, symSize: 0x14 }
  - { offsetInCU: 0x16526, offset: 0x30905, size: 0x8, addend: 0x0, symName: __ZNSt3__16__treeINS_12__value_typeINS_12basic_stringIcNS_11char_traitsIcEENS_9allocatorIcEEEE7ChannelEENS_19__map_value_compareIS7_S9_NS_4lessIS7_EELb1EEENS5_IS9_EEE4findIS7_EENS_15__tree_iteratorIS9_PNS_11__tree_nodeIS9_PvEElEERKT_, symObjAddr: 0x13534, symBinAddr: 0x1000340E4, symSize: 0x3FC }
  - { offsetInCU: 0x1657B, offset: 0x3095A, size: 0x8, addend: 0x0, symName: __ZNSt3__114__map_iteratorINS_15__tree_iteratorINS_12__value_typeINS_12basic_stringIcNS_11char_traitsIcEENS_9allocatorIcEEEE7ChannelEEPNS_11__tree_nodeISA_PvEElEEEC1B8ue170006ESF_, symObjAddr: 0x13930, symBinAddr: 0x1000344E0, symSize: 0x238 }
  - { offsetInCU: 0x165B9, offset: 0x30998, size: 0x8, addend: 0x0, symName: __ZNSt3__16__treeINS_12__value_typeINS_12basic_stringIcNS_11char_traitsIcEENS_9allocatorIcEEEE7ChannelEENS_19__map_value_compareIS7_S9_NS_4lessIS7_EELb1EEENS5_IS9_EEE13__lower_boundIS7_EENS_15__tree_iteratorIS9_PNS_11__tree_nodeIS9_PvEElEERKT_SL_PNS_15__tree_end_nodeIPNS_16__tree_node_baseISJ_EEEE, symObjAddr: 0x13B68, symBinAddr: 0x100034718, symSize: 0x2E0 }
  - { offsetInCU: 0x1661B, offset: 0x309FA, size: 0x8, addend: 0x0, symName: __ZNSt3__16__treeINS_12__value_typeINS_12basic_stringIcNS_11char_traitsIcEENS_9allocatorIcEEEE7ChannelEENS_19__map_value_compareIS7_S9_NS_4lessIS7_EELb1EEENS5_IS9_EEE3endB8ue170006Ev, symObjAddr: 0x13F14, symBinAddr: 0x100034A2C, symSize: 0x204 }
  - { offsetInCU: 0x16642, offset: 0x30A21, size: 0x8, addend: 0x0, symName: __ZNSt3__16__treeINS_12__value_typeINS_12basic_stringIcNS_11char_traitsIcEENS_9allocatorIcEEEE7ChannelEENS_19__map_value_compareIS7_S9_NS_4lessIS7_EELb1EEENS5_IS9_EEE10value_compB8ue170006Ev, symObjAddr: 0x14118, symBinAddr: 0x100034C30, symSize: 0x28 }
  - { offsetInCU: 0x16668, offset: 0x30A47, size: 0x8, addend: 0x0, symName: __ZNKSt3__119__map_value_compareINS_12basic_stringIcNS_11char_traitsIcEENS_9allocatorIcEEEENS_12__value_typeIS6_7ChannelEENS_4lessIS6_EELb1EEclB8ue170006ERKS6_RKS9_, symObjAddr: 0x14140, symBinAddr: 0x100034C58, symSize: 0x50 }
  - { offsetInCU: 0x166AC, offset: 0x30A8B, size: 0x8, addend: 0x0, symName: __ZNKSt3__115__tree_iteratorINS_12__value_typeINS_12basic_stringIcNS_11char_traitsIcEENS_9allocatorIcEEEE7ChannelEEPNS_11__tree_nodeIS9_PvEElEdeB8ue170006Ev, symObjAddr: 0x14190, symBinAddr: 0x100034CA8, symSize: 0x28 }
  - { offsetInCU: 0x166D2, offset: 0x30AB1, size: 0x8, addend: 0x0, symName: __ZNKSt3__119__map_value_compareINS_12basic_stringIcNS_11char_traitsIcEENS_9allocatorIcEEEENS_12__value_typeIS6_7ChannelEENS_4lessIS6_EELb1EEclB8ue170006ERKS9_RKS6_, symObjAddr: 0x141B8, symBinAddr: 0x100034CD0, symSize: 0x48 }
  - { offsetInCU: 0x16716, offset: 0x30AF5, size: 0x8, addend: 0x0, symName: __ZNSt3__115__tree_iteratorINS_12__value_typeINS_12basic_stringIcNS_11char_traitsIcEENS_9allocatorIcEEEE7ChannelEEPNS_11__tree_nodeIS9_PvEElEC1B8ue170006EPNS_15__tree_end_nodeIPNS_16__tree_node_baseISB_EEEE, symObjAddr: 0x14200, symBinAddr: 0x100034D18, symSize: 0x34 }
  - { offsetInCU: 0x1674F, offset: 0x30B2E, size: 0x8, addend: 0x0, symName: __ZNKSt3__112__value_typeINS_12basic_stringIcNS_11char_traitsIcEENS_9allocatorIcEEEE7ChannelE11__get_valueB8ue170006Ev, symObjAddr: 0x14234, symBinAddr: 0x100034D4C, symSize: 0x14 }
  - { offsetInCU: 0x16775, offset: 0x30B54, size: 0x8, addend: 0x0, symName: __ZNSt3__115__tree_iteratorINS_12__value_typeINS_12basic_stringIcNS_11char_traitsIcEENS_9allocatorIcEEEE7ChannelEEPNS_11__tree_nodeIS9_PvEElEC2B8ue170006EPNS_15__tree_end_nodeIPNS_16__tree_node_baseISB_EEEE, symObjAddr: 0x14248, symBinAddr: 0x100034D60, symSize: 0x70 }
  - { offsetInCU: 0x167AE, offset: 0x30B8D, size: 0x8, addend: 0x0, symName: __ZNSt3__117__compressed_pairImNS_19__map_value_compareINS_12basic_stringIcNS_11char_traitsIcEENS_9allocatorIcEEEENS_12__value_typeIS7_7ChannelEENS_4lessIS7_EELb1EEEE6secondB8ue170006Ev, symObjAddr: 0x143E4, symBinAddr: 0x100034E88, symSize: 0x24 }
  - { offsetInCU: 0x167D4, offset: 0x30BB3, size: 0x8, addend: 0x0, symName: __ZNSt3__122__compressed_pair_elemINS_19__map_value_compareINS_12basic_stringIcNS_11char_traitsIcEENS_9allocatorIcEEEENS_12__value_typeIS7_7ChannelEENS_4lessIS7_EELb1EEELi1ELb1EE5__getB8ue170006Ev, symObjAddr: 0x14408, symBinAddr: 0x100034EAC, symSize: 0x14 }
  - { offsetInCU: 0x167FA, offset: 0x30BD9, size: 0x8, addend: 0x0, symName: __ZNKSt3__115__tree_iteratorINS_12__value_typeINS_12basic_stringIcNS_11char_traitsIcEENS_9allocatorIcEEEE7ChannelEEPNS_11__tree_nodeIS9_PvEElE8__get_npB8ue170006Ev, symObjAddr: 0x1441C, symBinAddr: 0x100034EC0, symSize: 0x60 }
  - { offsetInCU: 0x16820, offset: 0x30BFF, size: 0x8, addend: 0x0, symName: __ZNSt3__114__map_iteratorINS_15__tree_iteratorINS_12__value_typeINS_12basic_stringIcNS_11char_traitsIcEENS_9allocatorIcEEEE7ChannelEEPNS_11__tree_nodeISA_PvEElEEEC2B8ue170006ESF_, symObjAddr: 0x1447C, symBinAddr: 0x100034F20, symSize: 0x204 }
  - { offsetInCU: 0x1685E, offset: 0x30C3D, size: 0x8, addend: 0x0, symName: __ZNSt3__114pointer_traitsIPNS_4pairIKNS_12basic_stringIcNS_11char_traitsIcEENS_9allocatorIcEEEE7ChannelEEE10pointer_toB8ue170006ERSA_, symObjAddr: 0x14680, symBinAddr: 0x100035124, symSize: 0x14 }
  - { offsetInCU: 0x16881, offset: 0x30C60, size: 0x8, addend: 0x0, symName: __ZNKSt3__115__tree_iteratorINS_12__value_typeINS_12basic_stringIcNS_11char_traitsIcEENS_9allocatorIcEEEE7ChannelEEPNS_11__tree_nodeIS9_PvEElEptB8ue170006Ev, symObjAddr: 0x14694, symBinAddr: 0x100035138, symSize: 0x2C }
  - { offsetInCU: 0x168A7, offset: 0x30C86, size: 0x8, addend: 0x0, symName: __ZNSt3__114pointer_traitsIPNS_12__value_typeINS_12basic_stringIcNS_11char_traitsIcEENS_9allocatorIcEEEE7ChannelEEE10pointer_toB8ue170006ERS9_, symObjAddr: 0x146D4, symBinAddr: 0x100035164, symSize: 0x14 }
  - { offsetInCU: 0x168CA, offset: 0x30CA9, size: 0x8, addend: 0x0, symName: __ZNSt3__16__treeINS_12__value_typeINS_12basic_stringIcNS_11char_traitsIcEENS_9allocatorIcEEEEP6ClientEENS_19__map_value_compareIS7_SA_NS_4lessIS7_EELb1EEENS5_ISA_EEE14__erase_uniqueIS7_EEmRKT_, symObjAddr: 0x146E8, symBinAddr: 0x100035178, symSize: 0x434 }
  - { offsetInCU: 0x1691F, offset: 0x30CFE, size: 0x8, addend: 0x0, symName: __ZNSt3__16__treeINS_12__value_typeINS_12basic_stringIcNS_11char_traitsIcEENS_9allocatorIcEEEEP6ClientEENS_19__map_value_compareIS7_SA_NS_4lessIS7_EELb1EEENS5_ISA_EEE4findIS7_EENS_15__tree_iteratorISA_PNS_11__tree_nodeISA_PvEElEERKT_, symObjAddr: 0x14B1C, symBinAddr: 0x1000355AC, symSize: 0x3FC }
  - { offsetInCU: 0x16974, offset: 0x30D53, size: 0x8, addend: 0x0, symName: __ZNSt3__16__treeINS_12__value_typeINS_12basic_stringIcNS_11char_traitsIcEENS_9allocatorIcEEEEP6ClientEENS_19__map_value_compareIS7_SA_NS_4lessIS7_EELb1EEENS5_ISA_EEE3endB8ue170006Ev, symObjAddr: 0x14FD0, symBinAddr: 0x100035A60, symSize: 0x204 }
  - { offsetInCU: 0x1699B, offset: 0x30D7A, size: 0x8, addend: 0x0, symName: __ZNSt3__16__treeINS_12__value_typeINS_12basic_stringIcNS_11char_traitsIcEENS_9allocatorIcEEEEP6ClientEENS_19__map_value_compareIS7_SA_NS_4lessIS7_EELb1EEENS5_ISA_EEE5eraseENS_21__tree_const_iteratorISA_PNS_11__tree_nodeISA_PvEElEE, symObjAddr: 0x151D4, symBinAddr: 0x100035C64, symSize: 0x310 }
  - { offsetInCU: 0x16A0A, offset: 0x30DE9, size: 0x8, addend: 0x0, symName: __ZNSt3__121__tree_const_iteratorINS_12__value_typeINS_12basic_stringIcNS_11char_traitsIcEENS_9allocatorIcEEEEP6ClientEEPNS_11__tree_nodeISA_PvEElEC1B8ue170006ENS_15__tree_iteratorISA_SE_lEE, symObjAddr: 0x154E4, symBinAddr: 0x100035F74, symSize: 0x238 }
  - { offsetInCU: 0x16A48, offset: 0x30E27, size: 0x8, addend: 0x0, symName: __ZNSt3__16__treeINS_12__value_typeINS_12basic_stringIcNS_11char_traitsIcEENS_9allocatorIcEEEEP6ClientEENS_19__map_value_compareIS7_SA_NS_4lessIS7_EELb1EEENS5_ISA_EEE13__lower_boundIS7_EENS_15__tree_iteratorISA_PNS_11__tree_nodeISA_PvEElEERKT_SM_PNS_15__tree_end_nodeIPNS_16__tree_node_baseISK_EEEE, symObjAddr: 0x1571C, symBinAddr: 0x1000361AC, symSize: 0x2E0 }
  - { offsetInCU: 0x16AAA, offset: 0x30E89, size: 0x8, addend: 0x0, symName: __ZNKSt3__115__tree_iteratorINS_12__value_typeINS_12basic_stringIcNS_11char_traitsIcEENS_9allocatorIcEEEEP6ClientEEPNS_11__tree_nodeISA_PvEElEdeB8ue170006Ev, symObjAddr: 0x15A30, symBinAddr: 0x1000364C0, symSize: 0x28 }
  - { offsetInCU: 0x16AD0, offset: 0x30EAF, size: 0x8, addend: 0x0, symName: __ZNSt3__115__tree_iteratorINS_12__value_typeINS_12basic_stringIcNS_11char_traitsIcEENS_9allocatorIcEEEEP6ClientEEPNS_11__tree_nodeISA_PvEElEC1B8ue170006EPNS_15__tree_end_nodeIPNS_16__tree_node_baseISC_EEEE, symObjAddr: 0x15A58, symBinAddr: 0x1000364E8, symSize: 0x34 }
  - { offsetInCU: 0x16B09, offset: 0x30EE8, size: 0x8, addend: 0x0, symName: __ZNSt3__115__tree_iteratorINS_12__value_typeINS_12basic_stringIcNS_11char_traitsIcEENS_9allocatorIcEEEEP6ClientEEPNS_11__tree_nodeISA_PvEElEC2B8ue170006EPNS_15__tree_end_nodeIPNS_16__tree_node_baseISC_EEEE, symObjAddr: 0x15A8C, symBinAddr: 0x10003651C, symSize: 0x70 }
  - { offsetInCU: 0x16B42, offset: 0x30F21, size: 0x8, addend: 0x0, symName: __ZNKSt3__115__tree_iteratorINS_12__value_typeINS_12basic_stringIcNS_11char_traitsIcEENS_9allocatorIcEEEEP6ClientEEPNS_11__tree_nodeISA_PvEElE8__get_npB8ue170006Ev, symObjAddr: 0x15AFC, symBinAddr: 0x10003658C, symSize: 0x60 }
  - { offsetInCU: 0x16B68, offset: 0x30F47, size: 0x8, addend: 0x0, symName: __ZNKSt3__121__tree_const_iteratorINS_12__value_typeINS_12basic_stringIcNS_11char_traitsIcEENS_9allocatorIcEEEEP6ClientEEPNS_11__tree_nodeISA_PvEElE8__get_npB8ue170006Ev, symObjAddr: 0x15B5C, symBinAddr: 0x1000365EC, symSize: 0x60 }
  - { offsetInCU: 0x16B8E, offset: 0x30F6D, size: 0x8, addend: 0x0, symName: __ZNSt3__16__treeINS_12__value_typeINS_12basic_stringIcNS_11char_traitsIcEENS_9allocatorIcEEEEP6ClientEENS_19__map_value_compareIS7_SA_NS_4lessIS7_EELb1EEENS5_ISA_EEE21__remove_node_pointerEPNS_11__tree_nodeISA_PvEE, symObjAddr: 0x15BBC, symBinAddr: 0x10003664C, symSize: 0x39C }
  - { offsetInCU: 0x16BDA, offset: 0x30FB9, size: 0x8, addend: 0x0, symName: __ZNKSt3__121__tree_const_iteratorINS_12__value_typeINS_12basic_stringIcNS_11char_traitsIcEENS_9allocatorIcEEEEP6ClientEEPNS_11__tree_nodeISA_PvEElEdeB8ue170006Ev, symObjAddr: 0x15F58, symBinAddr: 0x1000369E8, symSize: 0x28 }
  - { offsetInCU: 0x16C00, offset: 0x30FDF, size: 0x8, addend: 0x0, symName: __ZNSt3__115__tree_iteratorINS_12__value_typeINS_12basic_stringIcNS_11char_traitsIcEENS_9allocatorIcEEEEP6ClientEEPNS_11__tree_nodeISA_PvEElEC1B8ue170006ESE_, symObjAddr: 0x15F80, symBinAddr: 0x100036A10, symSize: 0x34 }
  - { offsetInCU: 0x16C39, offset: 0x31018, size: 0x8, addend: 0x0, symName: __ZNSt3__115__tree_iteratorINS_12__value_typeINS_12basic_stringIcNS_11char_traitsIcEENS_9allocatorIcEEEEP6ClientEEPNS_11__tree_nodeISA_PvEElEppB8ue170006Ev, symObjAddr: 0x15FB4, symBinAddr: 0x100036A44, symSize: 0xA8 }
  - { offsetInCU: 0x16C5F, offset: 0x3103E, size: 0x8, addend: 0x0, symName: __ZNSt3__115__tree_iteratorINS_12__value_typeINS_12basic_stringIcNS_11char_traitsIcEENS_9allocatorIcEEEEP6ClientEEPNS_11__tree_nodeISA_PvEElEC2B8ue170006ESE_, symObjAddr: 0x17F30, symBinAddr: 0x100036AEC, symSize: 0x70 }
  - { offsetInCU: 0x16C98, offset: 0x31077, size: 0x8, addend: 0x0, symName: __ZNSt3__121__tree_const_iteratorINS_12__value_typeINS_12basic_stringIcNS_11char_traitsIcEENS_9allocatorIcEEEEP6ClientEEPNS_11__tree_nodeISA_PvEElEC2B8ue170006ENS_15__tree_iteratorISA_SE_lEE, symObjAddr: 0x18294, symBinAddr: 0x100036B5C, symSize: 0x270 }
  - { offsetInCU: 0x16CD6, offset: 0x310B5, size: 0x8, addend: 0x0, symName: __ZNKSt3__16__treeINS_12__value_typeINS_12basic_stringIcNS_11char_traitsIcEENS_9allocatorIcEEEEP6ClientEENS_19__map_value_compareIS7_SA_NS_4lessIS7_EELb1EEENS5_ISA_EEE4sizeB8ue170006Ev, symObjAddr: 0x18504, symBinAddr: 0x100036DCC, symSize: 0x28 }
  - { offsetInCU: 0x16CFC, offset: 0x310DB, size: 0x8, addend: 0x0, symName: __ZNKSt3__117__compressed_pairImNS_19__map_value_compareINS_12basic_stringIcNS_11char_traitsIcEENS_9allocatorIcEEEENS_12__value_typeIS7_P6ClientEENS_4lessIS7_EELb1EEEE5firstB8ue170006Ev, symObjAddr: 0x1852C, symBinAddr: 0x100036DF4, symSize: 0x24 }
  - { offsetInCU: 0x16D22, offset: 0x31101, size: 0x8, addend: 0x0, symName: __ZNKSt3__122__compressed_pair_elemImLi0ELb0EE5__getB8ue170006Ev, symObjAddr: 0x18550, symBinAddr: 0x100036E18, symSize: 0x14 }
  - { offsetInCU: 0x16D48, offset: 0x31127, size: 0x8, addend: 0x0, symName: __ZNSt3__114__map_iteratorINS_15__tree_iteratorINS_12__value_typeINS_12basic_stringIcNS_11char_traitsIcEENS_9allocatorIcEEEEP6ClientEEPNS_11__tree_nodeISB_PvEElEEEC1B8ue170006ESG_, symObjAddr: 0x18564, symBinAddr: 0x100036E2C, symSize: 0x238 }
  - { offsetInCU: 0x16D86, offset: 0x31165, size: 0x8, addend: 0x0, symName: __ZNSt3__114__map_iteratorINS_15__tree_iteratorINS_12__value_typeINS_12basic_stringIcNS_11char_traitsIcEENS_9allocatorIcEEEEP6ClientEEPNS_11__tree_nodeISB_PvEElEEEC2B8ue170006ESG_, symObjAddr: 0x1879C, symBinAddr: 0x100037064, symSize: 0x204 }
  - { offsetInCU: 0x16DC4, offset: 0x311A3, size: 0x8, addend: 0x0, symName: __ZNSt3__13mapINS_12basic_stringIcNS_11char_traitsIcEENS_9allocatorIcEEEEP6ClientNS_4lessIS6_EENS4_INS_4pairIKS6_S8_EEEEEC2B8ue170006ERKSF_, symObjAddr: 0x189A0, symBinAddr: 0x100037268, symSize: 0x3CC }
  - { offsetInCU: 0x16DFF, offset: 0x311DE, size: 0x8, addend: 0x0, symName: __ZNSt3__16__treeINS_12__value_typeINS_12basic_stringIcNS_11char_traitsIcEENS_9allocatorIcEEEEP6ClientEENS_19__map_value_compareIS7_SA_NS_4lessIS7_EELb1EEENS5_ISA_EEEC1ERKSG_, symObjAddr: 0x18D6C, symBinAddr: 0x100037634, symSize: 0x34 }
  - { offsetInCU: 0x16E3A, offset: 0x31219, size: 0x8, addend: 0x0, symName: __ZNSt3__13mapINS_12basic_stringIcNS_11char_traitsIcEENS_9allocatorIcEEEEP6ClientNS_4lessIS6_EENS4_INS_4pairIKS6_S8_EEEEE6insertB8ue170006INS_20__map_const_iteratorINS_21__tree_const_iteratorINS_12__value_typeIS6_S8_EEPNS_11__tree_nodeISK_PvEElEEEEEEvT_SR_, symObjAddr: 0x18DA0, symBinAddr: 0x100037668, symSize: 0x458 }
  - { offsetInCU: 0x16EB2, offset: 0x31291, size: 0x8, addend: 0x0, symName: __ZNKSt3__13mapINS_12basic_stringIcNS_11char_traitsIcEENS_9allocatorIcEEEEP6ClientNS_4lessIS6_EENS4_INS_4pairIKS6_S8_EEEEE5beginB8ue170006Ev, symObjAddr: 0x191F8, symBinAddr: 0x100037AC0, symSize: 0x2B4 }
  - { offsetInCU: 0x16ED9, offset: 0x312B8, size: 0x8, addend: 0x0, symName: __ZNKSt3__13mapINS_12basic_stringIcNS_11char_traitsIcEENS_9allocatorIcEEEEP6ClientNS_4lessIS6_EENS4_INS_4pairIKS6_S8_EEEEE3endB8ue170006Ev, symObjAddr: 0x194AC, symBinAddr: 0x100037D74, symSize: 0x2B4 }
  - { offsetInCU: 0x16F00, offset: 0x312DF, size: 0x8, addend: 0x0, symName: __ZNSt3__16__treeINS_12__value_typeINS_12basic_stringIcNS_11char_traitsIcEENS_9allocatorIcEEEEP6ClientEENS_19__map_value_compareIS7_SA_NS_4lessIS7_EELb1EEENS5_ISA_EEEC2ERKSG_, symObjAddr: 0x19760, symBinAddr: 0x100038028, symSize: 0x374 }
  - { offsetInCU: 0x16F3D, offset: 0x3131C, size: 0x8, addend: 0x0, symName: __ZNSt3__116allocator_traitsINS_9allocatorINS_11__tree_nodeINS_12__value_typeINS_12basic_stringIcNS_11char_traitsIcEENS1_IcEEEEP6ClientEEPvEEEEE37select_on_container_copy_constructionB8ue170006ISE_vvEESE_RKSE_, symObjAddr: 0x19AD4, symBinAddr: 0x10003839C, symSize: 0x10 }
  - { offsetInCU: 0x16F6C, offset: 0x3134B, size: 0x8, addend: 0x0, symName: __ZNKSt3__16__treeINS_12__value_typeINS_12basic_stringIcNS_11char_traitsIcEENS_9allocatorIcEEEEP6ClientEENS_19__map_value_compareIS7_SA_NS_4lessIS7_EELb1EEENS5_ISA_EEE12__node_allocB8ue170006Ev, symObjAddr: 0x19AE4, symBinAddr: 0x1000383AC, symSize: 0x28 }
  - { offsetInCU: 0x16F98, offset: 0x31377, size: 0x8, addend: 0x0, symName: __ZNSt3__117__compressed_pairINS_15__tree_end_nodeIPNS_16__tree_node_baseIPvEEEENS_9allocatorINS_11__tree_nodeINS_12__value_typeINS_12basic_stringIcNS_11char_traitsIcEENS7_IcEEEEP6ClientEES3_EEEEEC1B8ue170006INS_18__default_init_tagESJ_EEOT_OT0_, symObjAddr: 0x19B0C, symBinAddr: 0x1000383D4, symSize: 0x3C }
  - { offsetInCU: 0x16FF0, offset: 0x313CF, size: 0x8, addend: 0x0, symName: __ZNKSt3__16__treeINS_12__value_typeINS_12basic_stringIcNS_11char_traitsIcEENS_9allocatorIcEEEEP6ClientEENS_19__map_value_compareIS7_SA_NS_4lessIS7_EELb1EEENS5_ISA_EEE10value_compB8ue170006Ev, symObjAddr: 0x19B48, symBinAddr: 0x100038410, symSize: 0x28 }
  - { offsetInCU: 0x17016, offset: 0x313F5, size: 0x8, addend: 0x0, symName: __ZNKSt3__117__compressed_pairINS_15__tree_end_nodeIPNS_16__tree_node_baseIPvEEEENS_9allocatorINS_11__tree_nodeINS_12__value_typeINS_12basic_stringIcNS_11char_traitsIcEENS7_IcEEEEP6ClientEES3_EEEEE6secondB8ue170006Ev, symObjAddr: 0x19B70, symBinAddr: 0x100038438, symSize: 0x24 }
  - { offsetInCU: 0x1703C, offset: 0x3141B, size: 0x8, addend: 0x0, symName: __ZNKSt3__122__compressed_pair_elemINS_9allocatorINS_11__tree_nodeINS_12__value_typeINS_12basic_stringIcNS_11char_traitsIcEENS1_IcEEEEP6ClientEEPvEEEELi1ELb1EE5__getB8ue170006Ev, symObjAddr: 0x19B94, symBinAddr: 0x10003845C, symSize: 0x14 }
  - { offsetInCU: 0x17062, offset: 0x31441, size: 0x8, addend: 0x0, symName: __ZNSt3__117__compressed_pairINS_15__tree_end_nodeIPNS_16__tree_node_baseIPvEEEENS_9allocatorINS_11__tree_nodeINS_12__value_typeINS_12basic_stringIcNS_11char_traitsIcEENS7_IcEEEEP6ClientEES3_EEEEEC2B8ue170006INS_18__default_init_tagESJ_EEOT_OT0_, symObjAddr: 0x19BA8, symBinAddr: 0x100038470, symSize: 0x40 }
  - { offsetInCU: 0x170BA, offset: 0x31499, size: 0x8, addend: 0x0, symName: __ZNSt3__122__compressed_pair_elemINS_15__tree_end_nodeIPNS_16__tree_node_baseIPvEEEELi0ELb0EEC2B8ue170006ENS_18__default_init_tagE, symObjAddr: 0x19BE8, symBinAddr: 0x1000384B0, symSize: 0x2C }
  - { offsetInCU: 0x170EF, offset: 0x314CE, size: 0x8, addend: 0x0, symName: __ZNSt3__122__compressed_pair_elemINS_9allocatorINS_11__tree_nodeINS_12__value_typeINS_12basic_stringIcNS_11char_traitsIcEENS1_IcEEEEP6ClientEEPvEEEELi1ELb1EEC2B8ue170006ISE_vEEOT_, symObjAddr: 0x19C14, symBinAddr: 0x1000384DC, symSize: 0x18 }
  - { offsetInCU: 0x17131, offset: 0x31510, size: 0x8, addend: 0x0, symName: __ZNKSt3__117__compressed_pairImNS_19__map_value_compareINS_12basic_stringIcNS_11char_traitsIcEENS_9allocatorIcEEEENS_12__value_typeIS7_P6ClientEENS_4lessIS7_EELb1EEEE6secondB8ue170006Ev, symObjAddr: 0x19C2C, symBinAddr: 0x1000384F4, symSize: 0x24 }
  - { offsetInCU: 0x17157, offset: 0x31536, size: 0x8, addend: 0x0, symName: __ZNKSt3__122__compressed_pair_elemINS_19__map_value_compareINS_12basic_stringIcNS_11char_traitsIcEENS_9allocatorIcEEEENS_12__value_typeIS7_P6ClientEENS_4lessIS7_EELb1EEELi1ELb1EE5__getB8ue170006Ev, symObjAddr: 0x19C50, symBinAddr: 0x100038518, symSize: 0x14 }
  - { offsetInCU: 0x1717D, offset: 0x3155C, size: 0x8, addend: 0x0, symName: __ZNKSt3__13mapINS_12basic_stringIcNS_11char_traitsIcEENS_9allocatorIcEEEEP6ClientNS_4lessIS6_EENS4_INS_4pairIKS6_S8_EEEEE4cendB8ue170006Ev, symObjAddr: 0x19C64, symBinAddr: 0x10003852C, symSize: 0x234 }
  - { offsetInCU: 0x171A4, offset: 0x31583, size: 0x8, addend: 0x0, symName: __ZNSt3__13mapINS_12basic_stringIcNS_11char_traitsIcEENS_9allocatorIcEEEEP6ClientNS_4lessIS6_EENS4_INS_4pairIKS6_S8_EEEEE6insertB8ue170006ENS_20__map_const_iteratorINS_21__tree_const_iteratorINS_12__value_typeIS6_S8_EEPNS_11__tree_nodeISJ_PvEElEEEERKSD_, symObjAddr: 0x19E98, symBinAddr: 0x100038760, symSize: 0x39C }
  - { offsetInCU: 0x171EE, offset: 0x315CD, size: 0x8, addend: 0x0, symName: __ZNSt3__120__map_const_iteratorINS_21__tree_const_iteratorINS_12__value_typeINS_12basic_stringIcNS_11char_traitsIcEENS_9allocatorIcEEEEP6ClientEEPNS_11__tree_nodeISB_PvEElEEEC1B8ue170006ESG_, symObjAddr: 0x1A234, symBinAddr: 0x100038AFC, symSize: 0x238 }
  - { offsetInCU: 0x1722C, offset: 0x3160B, size: 0x8, addend: 0x0, symName: __ZNKSt3__120__map_const_iteratorINS_21__tree_const_iteratorINS_12__value_typeINS_12basic_stringIcNS_11char_traitsIcEENS_9allocatorIcEEEEP6ClientEEPNS_11__tree_nodeISB_PvEElEEEdeB8ue170006Ev, symObjAddr: 0x1A46C, symBinAddr: 0x100038D34, symSize: 0x28 }
  - { offsetInCU: 0x17252, offset: 0x31631, size: 0x8, addend: 0x0, symName: __ZNSt3__16__treeINS_12__value_typeINS_12basic_stringIcNS_11char_traitsIcEENS_9allocatorIcEEEEP6ClientEENS_19__map_value_compareIS7_SA_NS_4lessIS7_EELb1EEENS5_ISA_EEE15__insert_uniqueB8ue170006ENS_21__tree_const_iteratorISA_PNS_11__tree_nodeISA_PvEElEERKNS_4pairIKS7_S9_EE, symObjAddr: 0x1A494, symBinAddr: 0x100038D5C, symSize: 0x3A4 }
  - { offsetInCU: 0x1729C, offset: 0x3167B, size: 0x8, addend: 0x0, symName: __ZNSt3__16__treeINS_12__value_typeINS_12basic_stringIcNS_11char_traitsIcEENS_9allocatorIcEEEEP6ClientEENS_19__map_value_compareIS7_SA_NS_4lessIS7_EELb1EEENS5_ISA_EEE30__emplace_hint_unique_key_argsIS7_JRKNS_4pairIKS7_S9_EEEEENSI_INS_15__tree_iteratorISA_PNS_11__tree_nodeISA_PvEElEEbEENS_21__tree_const_iteratorISA_SR_lEERKT_DpOT0_, symObjAddr: 0x1A838, symBinAddr: 0x100039100, symSize: 0x604 }
  - { offsetInCU: 0x17381, offset: 0x31760, size: 0x8, addend: 0x0, symName: __ZNSt3__122__tree_key_value_typesINS_12__value_typeINS_12basic_stringIcNS_11char_traitsIcEENS_9allocatorIcEEEEP6ClientEEE9__get_keyB8ue170006IKNS_4pairIKS7_S9_EEEENS_9enable_ifIXsr17__is_same_uncvrefIT_SF_EE5valueERSE_E4typeERSI_, symObjAddr: 0x1AE3C, symBinAddr: 0x100039704, symSize: 0x14 }
  - { offsetInCU: 0x173AE, offset: 0x3178D, size: 0x8, addend: 0x0, symName: __ZNSt3__16__treeINS_12__value_typeINS_12basic_stringIcNS_11char_traitsIcEENS_9allocatorIcEEEEP6ClientEENS_19__map_value_compareIS7_SA_NS_4lessIS7_EELb1EEENS5_ISA_EEE12__find_equalIS7_EERPNS_16__tree_node_baseIPvEENS_21__tree_const_iteratorISA_PNS_11__tree_nodeISA_SJ_EElEERPNS_15__tree_end_nodeISL_EESM_RKT_, symObjAddr: 0x1AE50, symBinAddr: 0x100039718, symSize: 0xC4C }
  - { offsetInCU: 0x17469, offset: 0x31848, size: 0x8, addend: 0x0, symName: __ZNSt3__16__treeINS_12__value_typeINS_12basic_stringIcNS_11char_traitsIcEENS_9allocatorIcEEEEP6ClientEENS_19__map_value_compareIS7_SA_NS_4lessIS7_EELb1EEENS5_ISA_EEE16__construct_nodeIJRKNS_4pairIKS7_S9_EEEEENS_10unique_ptrINS_11__tree_nodeISA_PvEENS_22__tree_node_destructorINS5_ISQ_EEEEEEDpOT_, symObjAddr: 0x1BA9C, symBinAddr: 0x10003A364, symSize: 0x398 }
  - { offsetInCU: 0x174CE, offset: 0x318AD, size: 0x8, addend: 0x0, symName: __ZNKSt3__110unique_ptrINS_11__tree_nodeINS_12__value_typeINS_12basic_stringIcNS_11char_traitsIcEENS_9allocatorIcEEEEP6ClientEEPvEENS_22__tree_node_destructorINS6_ISD_EEEEE3getB8ue170006Ev, symObjAddr: 0x1BE34, symBinAddr: 0x10003A6FC, symSize: 0x6C }
  - { offsetInCU: 0x174F4, offset: 0x318D3, size: 0x8, addend: 0x0, symName: __ZNSt3__110unique_ptrINS_11__tree_nodeINS_12__value_typeINS_12basic_stringIcNS_11char_traitsIcEENS_9allocatorIcEEEEP6ClientEEPvEENS_22__tree_node_destructorINS6_ISD_EEEEE7releaseB8ue170006Ev, symObjAddr: 0x1BEA0, symBinAddr: 0x10003A768, symSize: 0xB8 }
  - { offsetInCU: 0x17529, offset: 0x31908, size: 0x8, addend: 0x0, symName: __ZNSt3__110unique_ptrINS_11__tree_nodeINS_12__value_typeINS_12basic_stringIcNS_11char_traitsIcEENS_9allocatorIcEEEEP6ClientEEPvEENS_22__tree_node_destructorINS6_ISD_EEEEED1B8ue170006Ev, symObjAddr: 0x1BF58, symBinAddr: 0x10003A820, symSize: 0x2C }
  - { offsetInCU: 0x17553, offset: 0x31932, size: 0x8, addend: 0x0, symName: __ZNSt3__14pairINS_15__tree_iteratorINS_12__value_typeINS_12basic_stringIcNS_11char_traitsIcEENS_9allocatorIcEEEEP6ClientEEPNS_11__tree_nodeISB_PvEElEEbEC1B8ue170006ERKSG_RKb, symObjAddr: 0x1BF84, symBinAddr: 0x10003A84C, symSize: 0x3C }
  - { offsetInCU: 0x17599, offset: 0x31978, size: 0x8, addend: 0x0, symName: __ZNSt3__16__treeINS_12__value_typeINS_12basic_stringIcNS_11char_traitsIcEENS_9allocatorIcEEEEP6ClientEENS_19__map_value_compareIS7_SA_NS_4lessIS7_EELb1EEENS5_ISA_EEE5beginB8ue170006Ev, symObjAddr: 0x1C078, symBinAddr: 0x10003A940, symSize: 0x238 }
  - { offsetInCU: 0x175C0, offset: 0x3199F, size: 0x8, addend: 0x0, symName: __ZNSt3__121__tree_const_iteratorINS_12__value_typeINS_12basic_stringIcNS_11char_traitsIcEENS_9allocatorIcEEEEP6ClientEEPNS_11__tree_nodeISA_PvEElEmmB8ue170006Ev, symObjAddr: 0x1C2B0, symBinAddr: 0x10003AB78, symSize: 0xA8 }
  - { offsetInCU: 0x175E6, offset: 0x319C5, size: 0x8, addend: 0x0, symName: __ZNSt3__121__tree_const_iteratorINS_12__value_typeINS_12basic_stringIcNS_11char_traitsIcEENS_9allocatorIcEEEEP6ClientEEPNS_11__tree_nodeISA_PvEElEppB8ue170006Ev, symObjAddr: 0x1C898, symBinAddr: 0x10003B160, symSize: 0xA8 }
  - { offsetInCU: 0x1760C, offset: 0x319EB, size: 0x8, addend: 0x0, symName: __ZNSt3__122__tree_node_destructorINS_9allocatorINS_11__tree_nodeINS_12__value_typeINS_12basic_stringIcNS_11char_traitsIcEENS1_IcEEEEP6ClientEEPvEEEEEC1B8ue170006ERSE_b, symObjAddr: 0x1C940, symBinAddr: 0x10003B208, symSize: 0x48 }
  - { offsetInCU: 0x1765A, offset: 0x31A39, size: 0x8, addend: 0x0, symName: __ZNSt3__110unique_ptrINS_11__tree_nodeINS_12__value_typeINS_12basic_stringIcNS_11char_traitsIcEENS_9allocatorIcEEEEP6ClientEEPvEENS_22__tree_node_destructorINS6_ISD_EEEEEC1B8ue170006ILb1EvEEPSD_NS_16__dependent_typeINS_27__unique_ptr_deleter_sfinaeISG_EEXT_EE20__good_rval_ref_typeE, symObjAddr: 0x1C988, symBinAddr: 0x10003B250, symSize: 0x3C }
  - { offsetInCU: 0x176AB, offset: 0x31A8A, size: 0x8, addend: 0x0, symName: __ZNSt3__116allocator_traitsINS_9allocatorINS_11__tree_nodeINS_12__value_typeINS_12basic_stringIcNS_11char_traitsIcEENS1_IcEEEEP6ClientEEPvEEEEE9constructB8ue170006INS_4pairIKS8_SA_EEJRKSJ_EvEEvRSE_PT_DpOT0_, symObjAddr: 0x1C9C4, symBinAddr: 0x10003B28C, symSize: 0x34 }
  - { offsetInCU: 0x17702, offset: 0x31AE1, size: 0x8, addend: 0x0, symName: __ZNKSt3__110unique_ptrINS_11__tree_nodeINS_12__value_typeINS_12basic_stringIcNS_11char_traitsIcEENS_9allocatorIcEEEEP6ClientEEPvEENS_22__tree_node_destructorINS6_ISD_EEEEEptB8ue170006Ev, symObjAddr: 0x1C9F8, symBinAddr: 0x10003B2C0, symSize: 0x6C }
  - { offsetInCU: 0x17728, offset: 0x31B07, size: 0x8, addend: 0x0, symName: __ZNSt3__110unique_ptrINS_11__tree_nodeINS_12__value_typeINS_12basic_stringIcNS_11char_traitsIcEENS_9allocatorIcEEEEP6ClientEEPvEENS_22__tree_node_destructorINS6_ISD_EEEEE11get_deleterB8ue170006Ev, symObjAddr: 0x1CA64, symBinAddr: 0x10003B32C, symSize: 0x24 }
  - { offsetInCU: 0x1774E, offset: 0x31B2D, size: 0x8, addend: 0x0, symName: __ZNSt3__122__tree_node_destructorINS_9allocatorINS_11__tree_nodeINS_12__value_typeINS_12basic_stringIcNS_11char_traitsIcEENS1_IcEEEEP6ClientEEPvEEEEEC2B8ue170006ERSE_b, symObjAddr: 0x1CA88, symBinAddr: 0x10003B350, symSize: 0xF0 }
  - { offsetInCU: 0x17796, offset: 0x31B75, size: 0x8, addend: 0x0, symName: __ZNSt3__110unique_ptrINS_11__tree_nodeINS_12__value_typeINS_12basic_stringIcNS_11char_traitsIcEENS_9allocatorIcEEEEP6ClientEEPvEENS_22__tree_node_destructorINS6_ISD_EEEEEC2B8ue170006ILb1EvEEPSD_NS_16__dependent_typeINS_27__unique_ptr_deleter_sfinaeISG_EEXT_EE20__good_rval_ref_typeE, symObjAddr: 0x1CB78, symBinAddr: 0x10003B440, symSize: 0x230 }
  - { offsetInCU: 0x177ED, offset: 0x31BCC, size: 0x8, addend: 0x0, symName: __ZNSt3__117__compressed_pairIPNS_11__tree_nodeINS_12__value_typeINS_12basic_stringIcNS_11char_traitsIcEENS_9allocatorIcEEEEP6ClientEEPvEENS_22__tree_node_destructorINS6_ISD_EEEEEC1B8ue170006IRSE_SH_EEOT_OT0_, symObjAddr: 0x1CDA8, symBinAddr: 0x10003B670, symSize: 0x3C }
  - { offsetInCU: 0x17845, offset: 0x31C24, size: 0x8, addend: 0x0, symName: __ZNSt3__117__compressed_pairIPNS_11__tree_nodeINS_12__value_typeINS_12basic_stringIcNS_11char_traitsIcEENS_9allocatorIcEEEEP6ClientEEPvEENS_22__tree_node_destructorINS6_ISD_EEEEEC2B8ue170006IRSE_SH_EEOT_OT0_, symObjAddr: 0x1CDE4, symBinAddr: 0x10003B6AC, symSize: 0x48 }
  - { offsetInCU: 0x1789D, offset: 0x31C7C, size: 0x8, addend: 0x0, symName: __ZNSt3__122__compressed_pair_elemINS_22__tree_node_destructorINS_9allocatorINS_11__tree_nodeINS_12__value_typeINS_12basic_stringIcNS_11char_traitsIcEENS2_IcEEEEP6ClientEEPvEEEEEELi1ELb0EEC2B8ue170006ISG_vEEOT_, symObjAddr: 0x1CE2C, symBinAddr: 0x10003B6F4, symSize: 0x38 }
  - { offsetInCU: 0x178DF, offset: 0x31CBE, size: 0x8, addend: 0x0, symName: __ZNSt3__19allocatorINS_11__tree_nodeINS_12__value_typeINS_12basic_stringIcNS_11char_traitsIcEENS0_IcEEEEP6ClientEEPvEEE9constructB8ue170006INS_4pairIKS7_S9_EEJRKSH_EEEvPT_DpOT0_, symObjAddr: 0x1CE64, symBinAddr: 0x10003B72C, symSize: 0x30 }
  - { offsetInCU: 0x17935, offset: 0x31D14, size: 0x8, addend: 0x0, symName: __ZNSt3__14pairIKNS_12basic_stringIcNS_11char_traitsIcEENS_9allocatorIcEEEEP6ClientEC1B8ue170006ERKSA_, symObjAddr: 0x1CE94, symBinAddr: 0x10003B75C, symSize: 0x34 }
  - { offsetInCU: 0x1796A, offset: 0x31D49, size: 0x8, addend: 0x0, symName: __ZNSt3__14pairIKNS_12basic_stringIcNS_11char_traitsIcEENS_9allocatorIcEEEEP6ClientEC2B8ue170006ERKSA_, symObjAddr: 0x1CEC8, symBinAddr: 0x10003B790, symSize: 0xCC }
  - { offsetInCU: 0x1799F, offset: 0x31D7E, size: 0x8, addend: 0x0, symName: __ZNKSt3__117__compressed_pairIPNS_11__tree_nodeINS_12__value_typeINS_12basic_stringIcNS_11char_traitsIcEENS_9allocatorIcEEEEP6ClientEEPvEENS_22__tree_node_destructorINS6_ISD_EEEEE5firstB8ue170006Ev, symObjAddr: 0x1CF94, symBinAddr: 0x10003B85C, symSize: 0x24 }
  - { offsetInCU: 0x179C5, offset: 0x31DA4, size: 0x8, addend: 0x0, symName: __ZNSt3__117__compressed_pairIPNS_11__tree_nodeINS_12__value_typeINS_12basic_stringIcNS_11char_traitsIcEENS_9allocatorIcEEEEP6ClientEEPvEENS_22__tree_node_destructorINS6_ISD_EEEEE6secondB8ue170006Ev, symObjAddr: 0x1CFB8, symBinAddr: 0x10003B880, symSize: 0x28 }
  - { offsetInCU: 0x179EB, offset: 0x31DCA, size: 0x8, addend: 0x0, symName: __ZNSt3__122__compressed_pair_elemINS_22__tree_node_destructorINS_9allocatorINS_11__tree_nodeINS_12__value_typeINS_12basic_stringIcNS_11char_traitsIcEENS2_IcEEEEP6ClientEEPvEEEEEELi1ELb0EE5__getB8ue170006Ev, symObjAddr: 0x1CFE0, symBinAddr: 0x10003B8A8, symSize: 0x14 }
  - { offsetInCU: 0x17A11, offset: 0x31DF0, size: 0x8, addend: 0x0, symName: __ZNSt3__117__compressed_pairIPNS_11__tree_nodeINS_12__value_typeINS_12basic_stringIcNS_11char_traitsIcEENS_9allocatorIcEEEEP6ClientEEPvEENS_22__tree_node_destructorINS6_ISD_EEEEE5firstB8ue170006Ev, symObjAddr: 0x1CFF4, symBinAddr: 0x10003B8BC, symSize: 0x24 }
  - { offsetInCU: 0x17A37, offset: 0x31E16, size: 0x8, addend: 0x0, symName: __ZNSt3__110unique_ptrINS_11__tree_nodeINS_12__value_typeINS_12basic_stringIcNS_11char_traitsIcEENS_9allocatorIcEEEEP6ClientEEPvEENS_22__tree_node_destructorINS6_ISD_EEEEED2B8ue170006Ev, symObjAddr: 0x1D018, symBinAddr: 0x10003B8E0, symSize: 0x30 }
  - { offsetInCU: 0x17A61, offset: 0x31E40, size: 0x8, addend: 0x0, symName: __ZNSt3__110unique_ptrINS_11__tree_nodeINS_12__value_typeINS_12basic_stringIcNS_11char_traitsIcEENS_9allocatorIcEEEEP6ClientEEPvEENS_22__tree_node_destructorINS6_ISD_EEEEE5resetB8ue170006EPSD_, symObjAddr: 0x1D048, symBinAddr: 0x10003B910, symSize: 0xEC }
  - { offsetInCU: 0x17AA5, offset: 0x31E84, size: 0x8, addend: 0x0, symName: __ZNSt3__122__tree_node_destructorINS_9allocatorINS_11__tree_nodeINS_12__value_typeINS_12basic_stringIcNS_11char_traitsIcEENS1_IcEEEEP6ClientEEPvEEEEEclB8ue170006EPSD_, symObjAddr: 0x1D134, symBinAddr: 0x10003B9FC, symSize: 0x17C }
  - { offsetInCU: 0x17ADA, offset: 0x31EB9, size: 0x8, addend: 0x0, symName: __ZNSt3__14pairINS_15__tree_iteratorINS_12__value_typeINS_12basic_stringIcNS_11char_traitsIcEENS_9allocatorIcEEEEP6ClientEEPNS_11__tree_nodeISB_PvEElEEbEC2B8ue170006ERKSG_RKb, symObjAddr: 0x1D2B0, symBinAddr: 0x10003BB78, symSize: 0x120 }
  - { offsetInCU: 0x17B20, offset: 0x31EFF, size: 0x8, addend: 0x0, symName: __ZNSt3__120__map_const_iteratorINS_21__tree_const_iteratorINS_12__value_typeINS_12basic_stringIcNS_11char_traitsIcEENS_9allocatorIcEEEEP6ClientEEPNS_11__tree_nodeISB_PvEElEEEC2B8ue170006ESG_, symObjAddr: 0x1D3D0, symBinAddr: 0x10003BC98, symSize: 0x204 }
  - { offsetInCU: 0x17B5E, offset: 0x31F3D, size: 0x8, addend: 0x0, symName: __ZNKSt3__121__tree_const_iteratorINS_12__value_typeINS_12basic_stringIcNS_11char_traitsIcEENS_9allocatorIcEEEEP6ClientEEPNS_11__tree_nodeISA_PvEElEptB8ue170006Ev, symObjAddr: 0x1D5D4, symBinAddr: 0x10003BE9C, symSize: 0x2C }
  - { offsetInCU: 0x17B84, offset: 0x31F63, size: 0x8, addend: 0x0, symName: __ZNSt3__114pointer_traitsIPKNS_12__value_typeINS_12basic_stringIcNS_11char_traitsIcEENS_9allocatorIcEEEEP6ClientEEE10pointer_toB8ue170006ERSB_, symObjAddr: 0x1D600, symBinAddr: 0x10003BEC8, symSize: 0x14 }
  - { offsetInCU: 0x17BA7, offset: 0x31F86, size: 0x8, addend: 0x0, symName: __ZNKSt3__16__treeINS_12__value_typeINS_12basic_stringIcNS_11char_traitsIcEENS_9allocatorIcEEEEP6ClientEENS_19__map_value_compareIS7_SA_NS_4lessIS7_EELb1EEENS5_ISA_EEE5beginB8ue170006Ev, symObjAddr: 0x1D614, symBinAddr: 0x10003BEDC, symSize: 0x238 }
  - { offsetInCU: 0x17BCE, offset: 0x31FAD, size: 0x8, addend: 0x0, symName: __ZNKSt3__16__treeINS_12__value_typeINS_12basic_stringIcNS_11char_traitsIcEENS_9allocatorIcEEEEP6ClientEENS_19__map_value_compareIS7_SA_NS_4lessIS7_EELb1EEENS5_ISA_EEE12__begin_nodeB8ue170006Ev, symObjAddr: 0x1D84C, symBinAddr: 0x10003C114, symSize: 0x14 }
  - { offsetInCU: 0x17BF4, offset: 0x31FD3, size: 0x8, addend: 0x0, symName: __ZNSt3__121__tree_const_iteratorINS_12__value_typeINS_12basic_stringIcNS_11char_traitsIcEENS_9allocatorIcEEEEP6ClientEEPNS_11__tree_nodeISA_PvEElEC1B8ue170006EPNS_15__tree_end_nodeIPNS_16__tree_node_baseISC_EEEE, symObjAddr: 0x1D860, symBinAddr: 0x10003C128, symSize: 0x34 }
  - { offsetInCU: 0x17C2D, offset: 0x3200C, size: 0x8, addend: 0x0, symName: __ZNSt3__121__tree_const_iteratorINS_12__value_typeINS_12basic_stringIcNS_11char_traitsIcEENS_9allocatorIcEEEEP6ClientEEPNS_11__tree_nodeISA_PvEElEC2B8ue170006EPNS_15__tree_end_nodeIPNS_16__tree_node_baseISC_EEEE, symObjAddr: 0x1D894, symBinAddr: 0x10003C15C, symSize: 0x70 }
  - { offsetInCU: 0x17C66, offset: 0x32045, size: 0x8, addend: 0x0, symName: __ZNKSt3__16__treeINS_12__value_typeINS_12basic_stringIcNS_11char_traitsIcEENS_9allocatorIcEEEEP6ClientEENS_19__map_value_compareIS7_SA_NS_4lessIS7_EELb1EEENS5_ISA_EEE3endB8ue170006Ev, symObjAddr: 0x1D904, symBinAddr: 0x10003C1CC, symSize: 0x204 }
  - { offsetInCU: 0x17C8D, offset: 0x3206C, size: 0x8, addend: 0x0, symName: __ZNSt3__16__treeINS_12__value_typeIcbEENS_19__map_value_compareIcS2_NS_4lessIcEELb1EEENS_9allocatorIS2_EEE4findIcEENS_15__tree_iteratorIS2_PNS_11__tree_nodeIS2_PvEElEERKT_, symObjAddr: 0x1DB08, symBinAddr: 0x10003C3D0, symSize: 0x3FC }
  - { offsetInCU: 0x17CE2, offset: 0x320C1, size: 0x8, addend: 0x0, symName: __ZNSt3__114__map_iteratorINS_15__tree_iteratorINS_12__value_typeIcbEEPNS_11__tree_nodeIS3_PvEElEEEC1B8ue170006ES8_, symObjAddr: 0x1DF04, symBinAddr: 0x10003C7CC, symSize: 0x238 }
  - { offsetInCU: 0x17D20, offset: 0x320FF, size: 0x8, addend: 0x0, symName: __ZNSt3__16__treeINS_12__value_typeIcbEENS_19__map_value_compareIcS2_NS_4lessIcEELb1EEENS_9allocatorIS2_EEE13__lower_boundIcEENS_15__tree_iteratorIS2_PNS_11__tree_nodeIS2_PvEElEERKT_SF_PNS_15__tree_end_nodeIPNS_16__tree_node_baseISD_EEEE, symObjAddr: 0x1E13C, symBinAddr: 0x10003CA04, symSize: 0x2E0 }
  - { offsetInCU: 0x17D82, offset: 0x32161, size: 0x8, addend: 0x0, symName: __ZNSt3__16__treeINS_12__value_typeIcbEENS_19__map_value_compareIcS2_NS_4lessIcEELb1EEENS_9allocatorIS2_EEE3endB8ue170006Ev, symObjAddr: 0x1E450, symBinAddr: 0x10003CD18, symSize: 0x204 }
  - { offsetInCU: 0x17DA9, offset: 0x32188, size: 0x8, addend: 0x0, symName: __ZNKSt3__115__tree_iteratorINS_12__value_typeIcbEEPNS_11__tree_nodeIS2_PvEElEdeB8ue170006Ev, symObjAddr: 0x1E654, symBinAddr: 0x10003CF1C, symSize: 0x28 }
  - { offsetInCU: 0x17DCF, offset: 0x321AE, size: 0x8, addend: 0x0, symName: __ZNSt3__115__tree_iteratorINS_12__value_typeIcbEEPNS_11__tree_nodeIS2_PvEElEC1B8ue170006EPNS_15__tree_end_nodeIPNS_16__tree_node_baseIS4_EEEE, symObjAddr: 0x1E67C, symBinAddr: 0x10003CF44, symSize: 0x34 }
  - { offsetInCU: 0x17E08, offset: 0x321E7, size: 0x8, addend: 0x0, symName: __ZNSt3__115__tree_iteratorINS_12__value_typeIcbEEPNS_11__tree_nodeIS2_PvEElEC2B8ue170006EPNS_15__tree_end_nodeIPNS_16__tree_node_baseIS4_EEEE, symObjAddr: 0x1E6B0, symBinAddr: 0x10003CF78, symSize: 0x70 }
  - { offsetInCU: 0x17E41, offset: 0x32220, size: 0x8, addend: 0x0, symName: __ZNKSt3__115__tree_iteratorINS_12__value_typeIcbEEPNS_11__tree_nodeIS2_PvEElE8__get_npB8ue170006Ev, symObjAddr: 0x1E7D8, symBinAddr: 0x10003D0A0, symSize: 0x60 }
  - { offsetInCU: 0x17E67, offset: 0x32246, size: 0x8, addend: 0x0, symName: __ZNSt3__114__map_iteratorINS_15__tree_iteratorINS_12__value_typeIcbEEPNS_11__tree_nodeIS3_PvEElEEEC2B8ue170006ES8_, symObjAddr: 0x1E838, symBinAddr: 0x10003D100, symSize: 0x204 }
  - { offsetInCU: 0x17EA5, offset: 0x32284, size: 0x8, addend: 0x0, symName: __ZNSt3__114pointer_traitsIPNS_4pairIKcbEEE10pointer_toB8ue170006ERS3_, symObjAddr: 0x1EA3C, symBinAddr: 0x10003D304, symSize: 0x14 }
  - { offsetInCU: 0x17EC8, offset: 0x322A7, size: 0x8, addend: 0x0, symName: __ZNKSt3__115__tree_iteratorINS_12__value_typeIcbEEPNS_11__tree_nodeIS2_PvEElEptB8ue170006Ev, symObjAddr: 0x1EA50, symBinAddr: 0x10003D318, symSize: 0x2C }
  - { offsetInCU: 0x17EEE, offset: 0x322CD, size: 0x8, addend: 0x0, symName: __ZNSt3__114pointer_traitsIPNS_12__value_typeIcbEEE10pointer_toB8ue170006ERS2_, symObjAddr: 0x1EA7C, symBinAddr: 0x10003D344, symSize: 0x14 }
  - { offsetInCU: 0x17F11, offset: 0x322F0, size: 0x8, addend: 0x0, symName: __ZNKSt3__16__treeINS_12__value_typeIcbEENS_19__map_value_compareIcS2_NS_4lessIcEELb1EEENS_9allocatorIS2_EEE5beginB8ue170006Ev, symObjAddr: 0x1ED18, symBinAddr: 0x10003D358, symSize: 0x238 }
  - { offsetInCU: 0x17F38, offset: 0x32317, size: 0x8, addend: 0x0, symName: __ZNSt3__120__map_const_iteratorINS_21__tree_const_iteratorINS_12__value_typeIcbEEPNS_11__tree_nodeIS3_PvEElEEEC1B8ue170006ES8_, symObjAddr: 0x1EF50, symBinAddr: 0x10003D590, symSize: 0x238 }
  - { offsetInCU: 0x17F76, offset: 0x32355, size: 0x8, addend: 0x0, symName: __ZNKSt3__16__treeINS_12__value_typeIcbEENS_19__map_value_compareIcS2_NS_4lessIcEELb1EEENS_9allocatorIS2_EEE12__begin_nodeB8ue170006Ev, symObjAddr: 0x1F188, symBinAddr: 0x10003D7C8, symSize: 0x14 }
  - { offsetInCU: 0x17F9C, offset: 0x3237B, size: 0x8, addend: 0x0, symName: __ZNSt3__121__tree_const_iteratorINS_12__value_typeIcbEEPNS_11__tree_nodeIS2_PvEElEC1B8ue170006EPNS_15__tree_end_nodeIPNS_16__tree_node_baseIS4_EEEE, symObjAddr: 0x1F19C, symBinAddr: 0x10003D7DC, symSize: 0x34 }
  - { offsetInCU: 0x17FD5, offset: 0x323B4, size: 0x8, addend: 0x0, symName: __ZNSt3__121__tree_const_iteratorINS_12__value_typeIcbEEPNS_11__tree_nodeIS2_PvEElEC2B8ue170006EPNS_15__tree_end_nodeIPNS_16__tree_node_baseIS4_EEEE, symObjAddr: 0x1F1D0, symBinAddr: 0x10003D810, symSize: 0x70 }
  - { offsetInCU: 0x1800E, offset: 0x323ED, size: 0x8, addend: 0x0, symName: __ZNSt3__120__map_const_iteratorINS_21__tree_const_iteratorINS_12__value_typeIcbEEPNS_11__tree_nodeIS3_PvEElEEEC2B8ue170006ES8_, symObjAddr: 0x1F240, symBinAddr: 0x10003D880, symSize: 0x204 }
  - { offsetInCU: 0x1804C, offset: 0x3242B, size: 0x8, addend: 0x0, symName: __ZNKSt3__16__treeINS_12__value_typeIcbEENS_19__map_value_compareIcS2_NS_4lessIcEELb1EEENS_9allocatorIS2_EEE3endB8ue170006Ev, symObjAddr: 0x1F444, symBinAddr: 0x10003DA84, symSize: 0x204 }
  - { offsetInCU: 0x18073, offset: 0x32452, size: 0x8, addend: 0x0, symName: __ZNSt3__121__tree_const_iteratorINS_12__value_typeIcbEEPNS_11__tree_nodeIS2_PvEElEppB8ue170006Ev, symObjAddr: 0x1F734, symBinAddr: 0x10003DD74, symSize: 0xA8 }
  - { offsetInCU: 0x18099, offset: 0x32478, size: 0x8, addend: 0x0, symName: __ZNSt3__114pointer_traitsIPKNS_4pairIKcbEEE10pointer_toB8ue170006ERS4_, symObjAddr: 0x1F7DC, symBinAddr: 0x10003DE1C, symSize: 0x14 }
  - { offsetInCU: 0x180BC, offset: 0x3249B, size: 0x8, addend: 0x0, symName: __ZNKSt3__121__tree_const_iteratorINS_12__value_typeIcbEEPNS_11__tree_nodeIS2_PvEElEptB8ue170006Ev, symObjAddr: 0x1F7F0, symBinAddr: 0x10003DE30, symSize: 0x2C }
  - { offsetInCU: 0x180E2, offset: 0x324C1, size: 0x8, addend: 0x0, symName: __ZNSt3__114pointer_traitsIPKNS_12__value_typeIcbEEE10pointer_toB8ue170006ERS3_, symObjAddr: 0x1F81C, symBinAddr: 0x10003DE5C, symSize: 0x14 }
  - { offsetInCU: 0x18105, offset: 0x324E4, size: 0x8, addend: 0x0, symName: __ZNKSt3__121__tree_const_iteratorINS_12__value_typeIcbEEPNS_11__tree_nodeIS2_PvEElE8__get_npB8ue170006Ev, symObjAddr: 0x1F830, symBinAddr: 0x10003DE70, symSize: 0x60 }
  - { offsetInCU: 0x1812B, offset: 0x3250A, size: 0x8, addend: 0x0, symName: __ZNSt3__13mapIcbNS_4lessIcEENS_9allocatorINS_4pairIKcbEEEEEC2B8ue170006ERKS8_, symObjAddr: 0x1F890, symBinAddr: 0x10003DED0, symSize: 0x3CC }
  - { offsetInCU: 0x18166, offset: 0x32545, size: 0x8, addend: 0x0, symName: __ZNSt3__16__treeINS_12__value_typeIcbEENS_19__map_value_compareIcS2_NS_4lessIcEELb1EEENS_9allocatorIS2_EEEC1ERKS9_, symObjAddr: 0x1FC5C, symBinAddr: 0x10003E29C, symSize: 0x34 }
  - { offsetInCU: 0x181A1, offset: 0x32580, size: 0x8, addend: 0x0, symName: __ZNSt3__13mapIcbNS_4lessIcEENS_9allocatorINS_4pairIKcbEEEEE6insertB8ue170006INS_20__map_const_iteratorINS_21__tree_const_iteratorINS_12__value_typeIcbEEPNS_11__tree_nodeISD_PvEElEEEEEEvT_SK_, symObjAddr: 0x1FC90, symBinAddr: 0x10003E2D0, symSize: 0x458 }
  - { offsetInCU: 0x18219, offset: 0x325F8, size: 0x8, addend: 0x0, symName: __ZNSt3__16__treeINS_12__value_typeIcbEENS_19__map_value_compareIcS2_NS_4lessIcEELb1EEENS_9allocatorIS2_EEEC2ERKS9_, symObjAddr: 0x200E8, symBinAddr: 0x10003E728, symSize: 0x374 }
  - { offsetInCU: 0x18256, offset: 0x32635, size: 0x8, addend: 0x0, symName: __ZNSt3__116allocator_traitsINS_9allocatorINS_11__tree_nodeINS_12__value_typeIcbEEPvEEEEE37select_on_container_copy_constructionB8ue170006IS7_vvEES7_RKS7_, symObjAddr: 0x2045C, symBinAddr: 0x10003EA9C, symSize: 0x10 }
  - { offsetInCU: 0x18285, offset: 0x32664, size: 0x8, addend: 0x0, symName: __ZNKSt3__16__treeINS_12__value_typeIcbEENS_19__map_value_compareIcS2_NS_4lessIcEELb1EEENS_9allocatorIS2_EEE12__node_allocB8ue170006Ev, symObjAddr: 0x2046C, symBinAddr: 0x10003EAAC, symSize: 0x28 }
  - { offsetInCU: 0x182B1, offset: 0x32690, size: 0x8, addend: 0x0, symName: __ZNSt3__117__compressed_pairINS_15__tree_end_nodeIPNS_16__tree_node_baseIPvEEEENS_9allocatorINS_11__tree_nodeINS_12__value_typeIcbEES3_EEEEEC1B8ue170006INS_18__default_init_tagESC_EEOT_OT0_, symObjAddr: 0x20494, symBinAddr: 0x10003EAD4, symSize: 0x3C }
  - { offsetInCU: 0x18309, offset: 0x326E8, size: 0x8, addend: 0x0, symName: __ZNKSt3__16__treeINS_12__value_typeIcbEENS_19__map_value_compareIcS2_NS_4lessIcEELb1EEENS_9allocatorIS2_EEE10value_compB8ue170006Ev, symObjAddr: 0x204D0, symBinAddr: 0x10003EB10, symSize: 0x28 }
  - { offsetInCU: 0x1832F, offset: 0x3270E, size: 0x8, addend: 0x0, symName: __ZNKSt3__117__compressed_pairINS_15__tree_end_nodeIPNS_16__tree_node_baseIPvEEEENS_9allocatorINS_11__tree_nodeINS_12__value_typeIcbEES3_EEEEE6secondB8ue170006Ev, symObjAddr: 0x204F8, symBinAddr: 0x10003EB38, symSize: 0x24 }
  - { offsetInCU: 0x18355, offset: 0x32734, size: 0x8, addend: 0x0, symName: __ZNKSt3__122__compressed_pair_elemINS_9allocatorINS_11__tree_nodeINS_12__value_typeIcbEEPvEEEELi1ELb1EE5__getB8ue170006Ev, symObjAddr: 0x2051C, symBinAddr: 0x10003EB5C, symSize: 0x14 }
  - { offsetInCU: 0x1837B, offset: 0x3275A, size: 0x8, addend: 0x0, symName: __ZNSt3__117__compressed_pairINS_15__tree_end_nodeIPNS_16__tree_node_baseIPvEEEENS_9allocatorINS_11__tree_nodeINS_12__value_typeIcbEES3_EEEEEC2B8ue170006INS_18__default_init_tagESC_EEOT_OT0_, symObjAddr: 0x20530, symBinAddr: 0x10003EB70, symSize: 0x40 }
  - { offsetInCU: 0x183D3, offset: 0x327B2, size: 0x8, addend: 0x0, symName: __ZNSt3__122__compressed_pair_elemINS_9allocatorINS_11__tree_nodeINS_12__value_typeIcbEEPvEEEELi1ELb1EEC2B8ue170006IS7_vEEOT_, symObjAddr: 0x20570, symBinAddr: 0x10003EBB0, symSize: 0x18 }
  - { offsetInCU: 0x18415, offset: 0x327F4, size: 0x8, addend: 0x0, symName: __ZNKSt3__117__compressed_pairImNS_19__map_value_compareIcNS_12__value_typeIcbEENS_4lessIcEELb1EEEE6secondB8ue170006Ev, symObjAddr: 0x20588, symBinAddr: 0x10003EBC8, symSize: 0x24 }
  - { offsetInCU: 0x1843B, offset: 0x3281A, size: 0x8, addend: 0x0, symName: __ZNKSt3__122__compressed_pair_elemINS_19__map_value_compareIcNS_12__value_typeIcbEENS_4lessIcEELb1EEELi1ELb1EE5__getB8ue170006Ev, symObjAddr: 0x205AC, symBinAddr: 0x10003EBEC, symSize: 0x14 }
  - { offsetInCU: 0x18461, offset: 0x32840, size: 0x8, addend: 0x0, symName: __ZNKSt3__13mapIcbNS_4lessIcEENS_9allocatorINS_4pairIKcbEEEEE4cendB8ue170006Ev, symObjAddr: 0x205C0, symBinAddr: 0x10003EC00, symSize: 0x234 }
  - { offsetInCU: 0x18488, offset: 0x32867, size: 0x8, addend: 0x0, symName: __ZNSt3__13mapIcbNS_4lessIcEENS_9allocatorINS_4pairIKcbEEEEE6insertB8ue170006ENS_20__map_const_iteratorINS_21__tree_const_iteratorINS_12__value_typeIcbEEPNS_11__tree_nodeISC_PvEElEEEERKS6_, symObjAddr: 0x207F4, symBinAddr: 0x10003EE34, symSize: 0x39C }
  - { offsetInCU: 0x184D2, offset: 0x328B1, size: 0x8, addend: 0x0, symName: __ZNKSt3__120__map_const_iteratorINS_21__tree_const_iteratorINS_12__value_typeIcbEEPNS_11__tree_nodeIS3_PvEElEEEdeB8ue170006Ev, symObjAddr: 0x20B90, symBinAddr: 0x10003F1D0, symSize: 0x28 }
  - { offsetInCU: 0x184F8, offset: 0x328D7, size: 0x8, addend: 0x0, symName: __ZNSt3__16__treeINS_12__value_typeIcbEENS_19__map_value_compareIcS2_NS_4lessIcEELb1EEENS_9allocatorIS2_EEE15__insert_uniqueB8ue170006ENS_21__tree_const_iteratorIS2_PNS_11__tree_nodeIS2_PvEElEERKNS_4pairIKcbEE, symObjAddr: 0x20BB8, symBinAddr: 0x10003F1F8, symSize: 0x3A4 }
  - { offsetInCU: 0x18542, offset: 0x32921, size: 0x8, addend: 0x0, symName: __ZNSt3__16__treeINS_12__value_typeIcbEENS_19__map_value_compareIcS2_NS_4lessIcEELb1EEENS_9allocatorIS2_EEE30__emplace_hint_unique_key_argsIcJRKNS_4pairIKcbEEEEENSB_INS_15__tree_iteratorIS2_PNS_11__tree_nodeIS2_PvEElEEbEENS_21__tree_const_iteratorIS2_SK_lEERKT_DpOT0_, symObjAddr: 0x20F5C, symBinAddr: 0x10003F59C, symSize: 0x604 }
  - { offsetInCU: 0x18627, offset: 0x32A06, size: 0x8, addend: 0x0, symName: __ZNSt3__122__tree_key_value_typesINS_12__value_typeIcbEEE9__get_keyB8ue170006IKNS_4pairIKcbEEEENS_9enable_ifIXsr17__is_same_uncvrefIT_S7_EE5valueERS6_E4typeERSA_, symObjAddr: 0x21560, symBinAddr: 0x10003FBA0, symSize: 0x14 }
  - { offsetInCU: 0x18654, offset: 0x32A33, size: 0x8, addend: 0x0, symName: __ZNSt3__16__treeINS_12__value_typeIcbEENS_19__map_value_compareIcS2_NS_4lessIcEELb1EEENS_9allocatorIS2_EEE12__find_equalIcEERPNS_16__tree_node_baseIPvEENS_21__tree_const_iteratorIS2_PNS_11__tree_nodeIS2_SC_EElEERPNS_15__tree_end_nodeISE_EESF_RKT_, symObjAddr: 0x21574, symBinAddr: 0x10003FBB4, symSize: 0xC4C }
  - { offsetInCU: 0x1870F, offset: 0x32AEE, size: 0x8, addend: 0x0, symName: __ZNSt3__16__treeINS_12__value_typeIcbEENS_19__map_value_compareIcS2_NS_4lessIcEELb1EEENS_9allocatorIS2_EEE16__construct_nodeIJRKNS_4pairIKcbEEEEENS_10unique_ptrINS_11__tree_nodeIS2_PvEENS_22__tree_node_destructorINS7_ISJ_EEEEEEDpOT_, symObjAddr: 0x221C0, symBinAddr: 0x100040800, symSize: 0x398 }
  - { offsetInCU: 0x18774, offset: 0x32B53, size: 0x8, addend: 0x0, symName: __ZNKSt3__110unique_ptrINS_11__tree_nodeINS_12__value_typeIcbEEPvEENS_22__tree_node_destructorINS_9allocatorIS5_EEEEE3getB8ue170006Ev, symObjAddr: 0x22558, symBinAddr: 0x100040B98, symSize: 0x6C }
  - { offsetInCU: 0x1879A, offset: 0x32B79, size: 0x8, addend: 0x0, symName: __ZNSt3__110unique_ptrINS_11__tree_nodeINS_12__value_typeIcbEEPvEENS_22__tree_node_destructorINS_9allocatorIS5_EEEEE7releaseB8ue170006Ev, symObjAddr: 0x225C4, symBinAddr: 0x100040C04, symSize: 0xB8 }
  - { offsetInCU: 0x187CF, offset: 0x32BAE, size: 0x8, addend: 0x0, symName: __ZNSt3__110unique_ptrINS_11__tree_nodeINS_12__value_typeIcbEEPvEENS_22__tree_node_destructorINS_9allocatorIS5_EEEEED1B8ue170006Ev, symObjAddr: 0x2267C, symBinAddr: 0x100040CBC, symSize: 0x2C }
  - { offsetInCU: 0x187F9, offset: 0x32BD8, size: 0x8, addend: 0x0, symName: __ZNSt3__115__tree_iteratorINS_12__value_typeIcbEEPNS_11__tree_nodeIS2_PvEElEC1B8ue170006ES6_, symObjAddr: 0x226A8, symBinAddr: 0x100040CE8, symSize: 0x34 }
  - { offsetInCU: 0x18832, offset: 0x32C11, size: 0x8, addend: 0x0, symName: __ZNSt3__14pairINS_15__tree_iteratorINS_12__value_typeIcbEEPNS_11__tree_nodeIS3_PvEElEEbEC1B8ue170006ERKS8_RKb, symObjAddr: 0x226DC, symBinAddr: 0x100040D1C, symSize: 0x3C }
  - { offsetInCU: 0x18878, offset: 0x32C57, size: 0x8, addend: 0x0, symName: __ZNSt3__121__tree_const_iteratorINS_12__value_typeIcbEEPNS_11__tree_nodeIS2_PvEElEC1B8ue170006ENS_15__tree_iteratorIS2_S6_lEE, symObjAddr: 0x22718, symBinAddr: 0x100040D58, symSize: 0x238 }
  - { offsetInCU: 0x188B6, offset: 0x32C95, size: 0x8, addend: 0x0, symName: __ZNKSt3__121__tree_const_iteratorINS_12__value_typeIcbEEPNS_11__tree_nodeIS2_PvEElEdeB8ue170006Ev, symObjAddr: 0x22950, symBinAddr: 0x100040F90, symSize: 0x28 }
  - { offsetInCU: 0x188DC, offset: 0x32CBB, size: 0x8, addend: 0x0, symName: __ZNSt3__16__treeINS_12__value_typeIcbEENS_19__map_value_compareIcS2_NS_4lessIcEELb1EEENS_9allocatorIS2_EEE5beginB8ue170006Ev, symObjAddr: 0x22978, symBinAddr: 0x100040FB8, symSize: 0x238 }
  - { offsetInCU: 0x18903, offset: 0x32CE2, size: 0x8, addend: 0x0, symName: __ZNSt3__121__tree_const_iteratorINS_12__value_typeIcbEEPNS_11__tree_nodeIS2_PvEElEmmB8ue170006Ev, symObjAddr: 0x22BB0, symBinAddr: 0x1000411F0, symSize: 0xA8 }
  - { offsetInCU: 0x18929, offset: 0x32D08, size: 0x8, addend: 0x0, symName: __ZNSt3__121__tree_const_iteratorINS_12__value_typeIcbEEPNS_11__tree_nodeIS2_PvEElEC2B8ue170006ENS_15__tree_iteratorIS2_S6_lEE, symObjAddr: 0x22EE0, symBinAddr: 0x100041520, symSize: 0x270 }
  - { offsetInCU: 0x18967, offset: 0x32D46, size: 0x8, addend: 0x0, symName: __ZNSt3__122__tree_node_destructorINS_9allocatorINS_11__tree_nodeINS_12__value_typeIcbEEPvEEEEEC1B8ue170006ERS7_b, symObjAddr: 0x2322C, symBinAddr: 0x10004186C, symSize: 0x48 }
  - { offsetInCU: 0x189B5, offset: 0x32D94, size: 0x8, addend: 0x0, symName: __ZNSt3__110unique_ptrINS_11__tree_nodeINS_12__value_typeIcbEEPvEENS_22__tree_node_destructorINS_9allocatorIS5_EEEEEC1B8ue170006ILb1EvEEPS5_NS_16__dependent_typeINS_27__unique_ptr_deleter_sfinaeIS9_EEXT_EE20__good_rval_ref_typeE, symObjAddr: 0x23274, symBinAddr: 0x1000418B4, symSize: 0x3C }
  - { offsetInCU: 0x18A06, offset: 0x32DE5, size: 0x8, addend: 0x0, symName: __ZNSt3__116allocator_traitsINS_9allocatorINS_11__tree_nodeINS_12__value_typeIcbEEPvEEEEE9constructB8ue170006INS_4pairIKcbEEJRKSC_EvEEvRS7_PT_DpOT0_, symObjAddr: 0x232B0, symBinAddr: 0x1000418F0, symSize: 0x34 }
  - { offsetInCU: 0x18A5D, offset: 0x32E3C, size: 0x8, addend: 0x0, symName: __ZNKSt3__110unique_ptrINS_11__tree_nodeINS_12__value_typeIcbEEPvEENS_22__tree_node_destructorINS_9allocatorIS5_EEEEEptB8ue170006Ev, symObjAddr: 0x232E4, symBinAddr: 0x100041924, symSize: 0x6C }
  - { offsetInCU: 0x18A83, offset: 0x32E62, size: 0x8, addend: 0x0, symName: __ZNSt3__110unique_ptrINS_11__tree_nodeINS_12__value_typeIcbEEPvEENS_22__tree_node_destructorINS_9allocatorIS5_EEEEE11get_deleterB8ue170006Ev, symObjAddr: 0x23350, symBinAddr: 0x100041990, symSize: 0x24 }
  - { offsetInCU: 0x18AA9, offset: 0x32E88, size: 0x8, addend: 0x0, symName: __ZNSt3__122__tree_node_destructorINS_9allocatorINS_11__tree_nodeINS_12__value_typeIcbEEPvEEEEEC2B8ue170006ERS7_b, symObjAddr: 0x23374, symBinAddr: 0x1000419B4, symSize: 0xF0 }
  - { offsetInCU: 0x18AF1, offset: 0x32ED0, size: 0x8, addend: 0x0, symName: __ZNSt3__110unique_ptrINS_11__tree_nodeINS_12__value_typeIcbEEPvEENS_22__tree_node_destructorINS_9allocatorIS5_EEEEEC2B8ue170006ILb1EvEEPS5_NS_16__dependent_typeINS_27__unique_ptr_deleter_sfinaeIS9_EEXT_EE20__good_rval_ref_typeE, symObjAddr: 0x23464, symBinAddr: 0x100041AA4, symSize: 0x230 }
  - { offsetInCU: 0x18B48, offset: 0x32F27, size: 0x8, addend: 0x0, symName: __ZNSt3__117__compressed_pairIPNS_11__tree_nodeINS_12__value_typeIcbEEPvEENS_22__tree_node_destructorINS_9allocatorIS5_EEEEEC1B8ue170006IRS6_SA_EEOT_OT0_, symObjAddr: 0x23694, symBinAddr: 0x100041CD4, symSize: 0x3C }
  - { offsetInCU: 0x18BA0, offset: 0x32F7F, size: 0x8, addend: 0x0, symName: __ZNSt3__117__compressed_pairIPNS_11__tree_nodeINS_12__value_typeIcbEEPvEENS_22__tree_node_destructorINS_9allocatorIS5_EEEEEC2B8ue170006IRS6_SA_EEOT_OT0_, symObjAddr: 0x236D0, symBinAddr: 0x100041D10, symSize: 0x48 }
  - { offsetInCU: 0x18BF8, offset: 0x32FD7, size: 0x8, addend: 0x0, symName: __ZNSt3__122__compressed_pair_elemINS_22__tree_node_destructorINS_9allocatorINS_11__tree_nodeINS_12__value_typeIcbEEPvEEEEEELi1ELb0EEC2B8ue170006IS9_vEEOT_, symObjAddr: 0x23718, symBinAddr: 0x100041D58, symSize: 0x38 }
  - { offsetInCU: 0x18C3A, offset: 0x33019, size: 0x8, addend: 0x0, symName: __ZNSt3__19allocatorINS_11__tree_nodeINS_12__value_typeIcbEEPvEEE9constructB8ue170006INS_4pairIKcbEEJRKSA_EEEvPT_DpOT0_, symObjAddr: 0x23750, symBinAddr: 0x100041D90, symSize: 0x34 }
  - { offsetInCU: 0x18C90, offset: 0x3306F, size: 0x8, addend: 0x0, symName: __ZNKSt3__117__compressed_pairIPNS_11__tree_nodeINS_12__value_typeIcbEEPvEENS_22__tree_node_destructorINS_9allocatorIS5_EEEEE5firstB8ue170006Ev, symObjAddr: 0x23784, symBinAddr: 0x100041DC4, symSize: 0x24 }
  - { offsetInCU: 0x18CB6, offset: 0x33095, size: 0x8, addend: 0x0, symName: __ZNSt3__117__compressed_pairIPNS_11__tree_nodeINS_12__value_typeIcbEEPvEENS_22__tree_node_destructorINS_9allocatorIS5_EEEEE6secondB8ue170006Ev, symObjAddr: 0x237A8, symBinAddr: 0x100041DE8, symSize: 0x28 }
  - { offsetInCU: 0x18CDC, offset: 0x330BB, size: 0x8, addend: 0x0, symName: __ZNSt3__122__compressed_pair_elemINS_22__tree_node_destructorINS_9allocatorINS_11__tree_nodeINS_12__value_typeIcbEEPvEEEEEELi1ELb0EE5__getB8ue170006Ev, symObjAddr: 0x237D0, symBinAddr: 0x100041E10, symSize: 0x14 }
  - { offsetInCU: 0x18D02, offset: 0x330E1, size: 0x8, addend: 0x0, symName: __ZNSt3__117__compressed_pairIPNS_11__tree_nodeINS_12__value_typeIcbEEPvEENS_22__tree_node_destructorINS_9allocatorIS5_EEEEE5firstB8ue170006Ev, symObjAddr: 0x237E4, symBinAddr: 0x100041E24, symSize: 0x24 }
  - { offsetInCU: 0x18D28, offset: 0x33107, size: 0x8, addend: 0x0, symName: __ZNSt3__110unique_ptrINS_11__tree_nodeINS_12__value_typeIcbEEPvEENS_22__tree_node_destructorINS_9allocatorIS5_EEEEED2B8ue170006Ev, symObjAddr: 0x23808, symBinAddr: 0x100041E48, symSize: 0x30 }
  - { offsetInCU: 0x18D52, offset: 0x33131, size: 0x8, addend: 0x0, symName: __ZNSt3__110unique_ptrINS_11__tree_nodeINS_12__value_typeIcbEEPvEENS_22__tree_node_destructorINS_9allocatorIS5_EEEEE5resetB8ue170006EPS5_, symObjAddr: 0x23838, symBinAddr: 0x100041E78, symSize: 0xEC }
  - { offsetInCU: 0x18D96, offset: 0x33175, size: 0x8, addend: 0x0, symName: __ZNSt3__122__tree_node_destructorINS_9allocatorINS_11__tree_nodeINS_12__value_typeIcbEEPvEEEEEclB8ue170006EPS6_, symObjAddr: 0x23924, symBinAddr: 0x100041F64, symSize: 0x178 }
  - { offsetInCU: 0x18DCB, offset: 0x331AA, size: 0x8, addend: 0x0, symName: __ZNSt3__115__tree_iteratorINS_12__value_typeIcbEEPNS_11__tree_nodeIS2_PvEElEC2B8ue170006ES6_, symObjAddr: 0x23A9C, symBinAddr: 0x1000420DC, symSize: 0x70 }
  - { offsetInCU: 0x18E04, offset: 0x331E3, size: 0x8, addend: 0x0, symName: __ZNSt3__14pairINS_15__tree_iteratorINS_12__value_typeIcbEEPNS_11__tree_nodeIS3_PvEElEEbEC2B8ue170006ERKS8_RKb, symObjAddr: 0x23B0C, symBinAddr: 0x10004214C, symSize: 0x120 }
  - { offsetInCU: 0x18E4A, offset: 0x33229, size: 0x8, addend: 0x0, symName: __ZNSt3__114__map_iteratorINS_15__tree_iteratorINS_12__value_typeINS_12basic_stringIcNS_11char_traitsIcEENS_9allocatorIcEEEEP6ClientEEPNS_11__tree_nodeISB_PvEElEEEC2B8ue170006Ev, symObjAddr: 0x23C2C, symBinAddr: 0x10004226C, symSize: 0x2C }
  - { offsetInCU: 0x18E74, offset: 0x33253, size: 0x8, addend: 0x0, symName: __ZNSt3__115__tree_iteratorINS_12__value_typeINS_12basic_stringIcNS_11char_traitsIcEENS_9allocatorIcEEEEP6ClientEEPNS_11__tree_nodeISA_PvEElEC1B8ue170006Ev, symObjAddr: 0x23C58, symBinAddr: 0x100042298, symSize: 0x2C }
  - { offsetInCU: 0x18E9E, offset: 0x3327D, size: 0x8, addend: 0x0, symName: __ZNSt3__115__tree_iteratorINS_12__value_typeINS_12basic_stringIcNS_11char_traitsIcEENS_9allocatorIcEEEEP6ClientEEPNS_11__tree_nodeISA_PvEElEC2B8ue170006Ev, symObjAddr: 0x23C84, symBinAddr: 0x1000422C4, symSize: 0x14 }
  - { offsetInCU: 0x18EC8, offset: 0x332A7, size: 0x8, addend: 0x0, symName: __ZNSt3__114pointer_traitsIPNS_4pairIKNS_12basic_stringIcNS_11char_traitsIcEENS_9allocatorIcEEEEP6ClientEEE10pointer_toB8ue170006ERSB_, symObjAddr: 0x23C98, symBinAddr: 0x1000422D8, symSize: 0x14 }
  - { offsetInCU: 0x18EEB, offset: 0x332CA, size: 0x8, addend: 0x0, symName: __ZNKSt3__115__tree_iteratorINS_12__value_typeINS_12basic_stringIcNS_11char_traitsIcEENS_9allocatorIcEEEEP6ClientEEPNS_11__tree_nodeISA_PvEElEptB8ue170006Ev, symObjAddr: 0x23CAC, symBinAddr: 0x1000422EC, symSize: 0x2C }
  - { offsetInCU: 0x18F11, offset: 0x332F0, size: 0x8, addend: 0x0, symName: __ZNSt3__114pointer_traitsIPNS_12__value_typeINS_12basic_stringIcNS_11char_traitsIcEENS_9allocatorIcEEEEP6ClientEEE10pointer_toB8ue170006ERSA_, symObjAddr: 0x23CD8, symBinAddr: 0x100042318, symSize: 0x14 }
  - { offsetInCU: 0x18F34, offset: 0x33313, size: 0x8, addend: 0x0, symName: __ZNSt3__16vectorINS_12basic_stringIcNS_11char_traitsIcEENS_9allocatorIcEEEENS4_IS6_EEE22__construct_one_at_endB8ue170006IJRKS6_EEEvDpOT_, symObjAddr: 0x23D14, symBinAddr: 0x10004232C, symSize: 0x380 }
  - { offsetInCU: 0x18F89, offset: 0x33368, size: 0x8, addend: 0x0, symName: __ZNSt3__16vectorINS_12basic_stringIcNS_11char_traitsIcEENS_9allocatorIcEEEENS4_IS6_EEE21__push_back_slow_pathIRKS6_EEvOT_, symObjAddr: 0x24094, symBinAddr: 0x1000426AC, symSize: 0x3D4 }
  - { offsetInCU: 0x19007, offset: 0x333E6, size: 0x8, addend: 0x0, symName: __ZNSt3__16vectorINS_12basic_stringIcNS_11char_traitsIcEENS_9allocatorIcEEEENS4_IS6_EEE21_ConstructTransactionC1B8ue170006ERS8_m, symObjAddr: 0x244A0, symBinAddr: 0x100042A80, symSize: 0x3C }
  - { offsetInCU: 0x1904F, offset: 0x3342E, size: 0x8, addend: 0x0, symName: __ZNSt3__116allocator_traitsINS_9allocatorINS_12basic_stringIcNS_11char_traitsIcEENS1_IcEEEEEEE9constructB8ue170006IS6_JRKS6_EvEEvRS7_PT_DpOT0_, symObjAddr: 0x244DC, symBinAddr: 0x100042ABC, symSize: 0x34 }
  - { offsetInCU: 0x190A6, offset: 0x33485, size: 0x8, addend: 0x0, symName: __ZNSt3__16vectorINS_12basic_stringIcNS_11char_traitsIcEENS_9allocatorIcEEEENS4_IS6_EEE21_ConstructTransactionD1B8ue170006Ev, symObjAddr: 0x2454C, symBinAddr: 0x100042AF0, symSize: 0x2C }
  - { offsetInCU: 0x190D0, offset: 0x334AF, size: 0x8, addend: 0x0, symName: __ZNSt3__16vectorINS_12basic_stringIcNS_11char_traitsIcEENS_9allocatorIcEEEENS4_IS6_EEE21_ConstructTransactionC2B8ue170006ERS8_m, symObjAddr: 0x24578, symBinAddr: 0x100042B1C, symSize: 0x1D8 }
  - { offsetInCU: 0x19118, offset: 0x334F7, size: 0x8, addend: 0x0, symName: __ZNKSt3__16vectorINS_12basic_stringIcNS_11char_traitsIcEENS_9allocatorIcEEEENS4_IS6_EEE19__annotate_increaseB8ue170006Em, symObjAddr: 0x24750, symBinAddr: 0x100042CF4, symSize: 0x10C }
  - { offsetInCU: 0x1914D, offset: 0x3352C, size: 0x8, addend: 0x0, symName: __ZNSt3__19allocatorINS_12basic_stringIcNS_11char_traitsIcEENS0_IcEEEEE9constructB8ue170006IS5_JRKS5_EEEvPT_DpOT0_, symObjAddr: 0x24AF0, symBinAddr: 0x100042E00, symSize: 0x30 }
  - { offsetInCU: 0x191A3, offset: 0x33582, size: 0x8, addend: 0x0, symName: __ZNSt3__16vectorINS_12basic_stringIcNS_11char_traitsIcEENS_9allocatorIcEEEENS4_IS6_EEE21_ConstructTransactionD2B8ue170006Ev, symObjAddr: 0x24B58, symBinAddr: 0x100042E30, symSize: 0x278 }
  - { offsetInCU: 0x191CD, offset: 0x335AC, size: 0x8, addend: 0x0, symName: __ZNKSt3__16vectorINS_12basic_stringIcNS_11char_traitsIcEENS_9allocatorIcEEEENS4_IS6_EEE11__recommendB8ue170006Em, symObjAddr: 0x24EC8, symBinAddr: 0x1000430A8, symSize: 0x384 }
  - { offsetInCU: 0x19229, offset: 0x33608, size: 0x8, addend: 0x0, symName: __ZNSt3__114__split_bufferINS_12basic_stringIcNS_11char_traitsIcEENS_9allocatorIcEEEERNS4_IS6_EEEC1EmmS8_, symObjAddr: 0x2524C, symBinAddr: 0x10004342C, symSize: 0x44 }
  - { offsetInCU: 0x1927F, offset: 0x3365E, size: 0x8, addend: 0x0, symName: __ZNSt3__114__split_bufferINS_12basic_stringIcNS_11char_traitsIcEENS_9allocatorIcEEEERNS4_IS6_EEED1Ev, symObjAddr: 0x257FC, symBinAddr: 0x1000439DC, symSize: 0x2C }
  - { offsetInCU: 0x192AB, offset: 0x3368A, size: 0x8, addend: 0x0, symName: __ZNKSt3__16vectorINS_12basic_stringIcNS_11char_traitsIcEENS_9allocatorIcEEEENS4_IS6_EEE8max_sizeEv, symObjAddr: 0x25828, symBinAddr: 0x100043A08, symSize: 0x328 }
  - { offsetInCU: 0x192D4, offset: 0x336B3, size: 0x8, addend: 0x0, symName: __ZNKSt3__16vectorINS_12basic_stringIcNS_11char_traitsIcEENS_9allocatorIcEEEENS4_IS6_EEE20__throw_length_errorB8ue170006Ev, symObjAddr: 0x25B50, symBinAddr: 0x100043D30, symSize: 0x20 }
  - { offsetInCU: 0x19304, offset: 0x336E3, size: 0x8, addend: 0x0, symName: __ZNSt3__116allocator_traitsINS_9allocatorINS_12basic_stringIcNS_11char_traitsIcEENS1_IcEEEEEEE8max_sizeB8ue170006IS7_vEEmRKS7_, symObjAddr: 0x25B9C, symBinAddr: 0x100043D50, symSize: 0x24 }
  - { offsetInCU: 0x19332, offset: 0x33711, size: 0x8, addend: 0x0, symName: __ZNKSt3__16vectorINS_12basic_stringIcNS_11char_traitsIcEENS_9allocatorIcEEEENS4_IS6_EEE7__allocB8ue170006Ev, symObjAddr: 0x25BC0, symBinAddr: 0x100043D74, symSize: 0x28 }
  - { offsetInCU: 0x19358, offset: 0x33737, size: 0x8, addend: 0x0, symName: __ZNKSt3__19allocatorINS_12basic_stringIcNS_11char_traitsIcEENS0_IcEEEEE8max_sizeB8ue170006Ev, symObjAddr: 0x25BFC, symBinAddr: 0x100043D9C, symSize: 0x18 }
  - { offsetInCU: 0x1937E, offset: 0x3375D, size: 0x8, addend: 0x0, symName: __ZNKSt3__117__compressed_pairIPNS_12basic_stringIcNS_11char_traitsIcEENS_9allocatorIcEEEENS4_IS6_EEE6secondB8ue170006Ev, symObjAddr: 0x25C14, symBinAddr: 0x100043DB4, symSize: 0x24 }
  - { offsetInCU: 0x193A4, offset: 0x33783, size: 0x8, addend: 0x0, symName: __ZNKSt3__122__compressed_pair_elemINS_9allocatorINS_12basic_stringIcNS_11char_traitsIcEENS1_IcEEEEEELi1ELb1EE5__getB8ue170006Ev, symObjAddr: 0x25C38, symBinAddr: 0x100043DD8, symSize: 0x14 }
  - { offsetInCU: 0x193CA, offset: 0x337A9, size: 0x8, addend: 0x0, symName: __ZNSt3__114__split_bufferINS_12basic_stringIcNS_11char_traitsIcEENS_9allocatorIcEEEERNS4_IS6_EEEC2EmmS8_, symObjAddr: 0x25F64, symBinAddr: 0x100043DEC, symSize: 0x530 }
  - { offsetInCU: 0x1944C, offset: 0x3382B, size: 0x8, addend: 0x0, symName: __ZNSt3__117__compressed_pairIPNS_12basic_stringIcNS_11char_traitsIcEENS_9allocatorIcEEEERNS4_IS6_EEEC1B8ue170006IDnS9_EEOT_OT0_, symObjAddr: 0x26494, symBinAddr: 0x10004431C, symSize: 0x3C }
  - { offsetInCU: 0x194A4, offset: 0x33883, size: 0x8, addend: 0x0, symName: __ZNSt3__114__split_bufferINS_12basic_stringIcNS_11char_traitsIcEENS_9allocatorIcEEEERNS4_IS6_EEE7__allocB8ue170006Ev, symObjAddr: 0x2675C, symBinAddr: 0x1000445E4, symSize: 0x28 }
  - { offsetInCU: 0x194CA, offset: 0x338A9, size: 0x8, addend: 0x0, symName: __ZNSt3__114__split_bufferINS_12basic_stringIcNS_11char_traitsIcEENS_9allocatorIcEEEERNS4_IS6_EEE9__end_capB8ue170006Ev, symObjAddr: 0x26784, symBinAddr: 0x10004460C, symSize: 0x28 }
  - { offsetInCU: 0x194F0, offset: 0x338CF, size: 0x8, addend: 0x0, symName: __ZNSt3__117__compressed_pairIPNS_12basic_stringIcNS_11char_traitsIcEENS_9allocatorIcEEEERNS4_IS6_EEEC2B8ue170006IDnS9_EEOT_OT0_, symObjAddr: 0x267AC, symBinAddr: 0x100044634, symSize: 0x48 }
  - { offsetInCU: 0x19548, offset: 0x33927, size: 0x8, addend: 0x0, symName: __ZNSt3__122__compressed_pair_elemIRNS_9allocatorINS_12basic_stringIcNS_11char_traitsIcEENS1_IcEEEEEELi1ELb0EEC2B8ue170006IS8_vEEOT_, symObjAddr: 0x26858, symBinAddr: 0x10004467C, symSize: 0x70 }
  - { offsetInCU: 0x1958A, offset: 0x33969, size: 0x8, addend: 0x0, symName: __ZNSt3__19allocatorINS_12basic_stringIcNS_11char_traitsIcEENS0_IcEEEEE8allocateB8ue170006Em, symObjAddr: 0x268C8, symBinAddr: 0x1000446EC, symSize: 0x90 }
  - { offsetInCU: 0x195BE, offset: 0x3399D, size: 0x8, addend: 0x0, symName: __ZNSt3__117__compressed_pairIPNS_12basic_stringIcNS_11char_traitsIcEENS_9allocatorIcEEEERNS4_IS6_EEE6secondB8ue170006Ev, symObjAddr: 0x26958, symBinAddr: 0x10004477C, symSize: 0x28 }
  - { offsetInCU: 0x195E4, offset: 0x339C3, size: 0x8, addend: 0x0, symName: __ZNSt3__122__compressed_pair_elemIRNS_9allocatorINS_12basic_stringIcNS_11char_traitsIcEENS1_IcEEEEEELi1ELb0EE5__getB8ue170006Ev, symObjAddr: 0x26980, symBinAddr: 0x1000447A4, symSize: 0x60 }
  - { offsetInCU: 0x1960A, offset: 0x339E9, size: 0x8, addend: 0x0, symName: __ZNSt3__117__compressed_pairIPNS_12basic_stringIcNS_11char_traitsIcEENS_9allocatorIcEEEERNS4_IS6_EEE5firstB8ue170006Ev, symObjAddr: 0x269E0, symBinAddr: 0x100044804, symSize: 0x24 }
  - { offsetInCU: 0x19630, offset: 0x33A0F, size: 0x8, addend: 0x0, symName: __ZNSt3__116reverse_iteratorIPNS_12basic_stringIcNS_11char_traitsIcEENS_9allocatorIcEEEEEC1B8ue170006ES7_, symObjAddr: 0x27058, symBinAddr: 0x100044D80, symSize: 0x34 }
  - { offsetInCU: 0x19668, offset: 0x33A47, size: 0x8, addend: 0x0, symName: __ZNKSt3__116reverse_iteratorIPNS_12basic_stringIcNS_11char_traitsIcEENS_9allocatorIcEEEEE4baseB8ue170006Ev, symObjAddr: 0x2708C, symBinAddr: 0x100044DB4, symSize: 0x64 }
  - { offsetInCU: 0x1968E, offset: 0x33A6D, size: 0x8, addend: 0x0, symName: __ZNKSt3__16vectorINS_12basic_stringIcNS_11char_traitsIcEENS_9allocatorIcEEEENS4_IS6_EEE14__annotate_newB8ue170006Em, symObjAddr: 0x27224, symBinAddr: 0x100044F4C, symSize: 0xF0 }
  - { offsetInCU: 0x196C3, offset: 0x33AA2, size: 0x8, addend: 0x0, symName: __ZNSt3__129_AllocatorDestroyRangeReverseINS_9allocatorINS_12basic_stringIcNS_11char_traitsIcEENS1_IcEEEEEENS_16reverse_iteratorIPS6_EEEC1B8ue170006ERS7_RSA_SD_, symObjAddr: 0x2750C, symBinAddr: 0x100045234, symSize: 0x44 }
  - { offsetInCU: 0x1971A, offset: 0x33AF9, size: 0x8, addend: 0x0, symName: __ZNKSt3__116reverse_iteratorIPNS_12basic_stringIcNS_11char_traitsIcEENS_9allocatorIcEEEEEdeB8ue170006Ev, symObjAddr: 0x275BC, symBinAddr: 0x1000452E4, symSize: 0x74 }
  - { offsetInCU: 0x1974E, offset: 0x33B2D, size: 0x8, addend: 0x0, symName: __ZNSt3__116reverse_iteratorIPNS_12basic_stringIcNS_11char_traitsIcEENS_9allocatorIcEEEEEppB8ue170006Ev, symObjAddr: 0x27630, symBinAddr: 0x100045358, symSize: 0x6C }
  - { offsetInCU: 0x19774, offset: 0x33B53, size: 0x8, addend: 0x0, symName: __ZNSt3__128__exception_guard_exceptionsINS_29_AllocatorDestroyRangeReverseINS_9allocatorINS_12basic_stringIcNS_11char_traitsIcEENS2_IcEEEEEENS_16reverse_iteratorIPS7_EEEEE10__completeB8ue170006Ev, symObjAddr: 0x2769C, symBinAddr: 0x1000453C4, symSize: 0x8C }
  - { offsetInCU: 0x1979A, offset: 0x33B79, size: 0x8, addend: 0x0, symName: __ZNSt3__128__exception_guard_exceptionsINS_29_AllocatorDestroyRangeReverseINS_9allocatorINS_12basic_stringIcNS_11char_traitsIcEENS2_IcEEEEEENS_16reverse_iteratorIPS7_EEEEED1B8ue170006Ev, symObjAddr: 0x27728, symBinAddr: 0x100045450, symSize: 0x2C }
  - { offsetInCU: 0x197C4, offset: 0x33BA3, size: 0x8, addend: 0x0, symName: __ZNSt3__128__exception_guard_exceptionsINS_29_AllocatorDestroyRangeReverseINS_9allocatorINS_12basic_stringIcNS_11char_traitsIcEENS2_IcEEEEEENS_16reverse_iteratorIPS7_EEEEEC1B8ue170006ESC_, symObjAddr: 0x27754, symBinAddr: 0x10004547C, symSize: 0x34 }
  - { offsetInCU: 0x197FD, offset: 0x33BDC, size: 0x8, addend: 0x0, symName: __ZNSt3__128__exception_guard_exceptionsINS_29_AllocatorDestroyRangeReverseINS_9allocatorINS_12basic_stringIcNS_11char_traitsIcEENS2_IcEEEEEENS_16reverse_iteratorIPS7_EEEEEC2B8ue170006ESC_, symObjAddr: 0x27788, symBinAddr: 0x1000454B0, symSize: 0xA4 }
  - { offsetInCU: 0x19836, offset: 0x33C15, size: 0x8, addend: 0x0, symName: __ZNSt3__129_AllocatorDestroyRangeReverseINS_9allocatorINS_12basic_stringIcNS_11char_traitsIcEENS1_IcEEEEEENS_16reverse_iteratorIPS6_EEEC2B8ue170006ERS7_RSA_SD_, symObjAddr: 0x2782C, symBinAddr: 0x100045554, symSize: 0x104 }
  - { offsetInCU: 0x19892, offset: 0x33C71, size: 0x8, addend: 0x0, symName: __ZNSt3__119__to_address_helperINS_16reverse_iteratorIPNS_12basic_stringIcNS_11char_traitsIcEENS_9allocatorIcEEEEEEvE6__callB8ue170006ERKS9_, symObjAddr: 0x27930, symBinAddr: 0x100045658, symSize: 0x58 }
  - { offsetInCU: 0x198B5, offset: 0x33C94, size: 0x8, addend: 0x0, symName: __ZNKSt3__116reverse_iteratorIPNS_12basic_stringIcNS_11char_traitsIcEENS_9allocatorIcEEEEEptB8ue170006Ev, symObjAddr: 0x27988, symBinAddr: 0x1000456B0, symSize: 0x24 }
  - { offsetInCU: 0x198DB, offset: 0x33CBA, size: 0x8, addend: 0x0, symName: __ZNSt3__128__exception_guard_exceptionsINS_29_AllocatorDestroyRangeReverseINS_9allocatorINS_12basic_stringIcNS_11char_traitsIcEENS2_IcEEEEEENS_16reverse_iteratorIPS7_EEEEED2B8ue170006Ev, symObjAddr: 0x279AC, symBinAddr: 0x1000456D4, symSize: 0xA8 }
  - { offsetInCU: 0x19905, offset: 0x33CE4, size: 0x8, addend: 0x0, symName: __ZNKSt3__129_AllocatorDestroyRangeReverseINS_9allocatorINS_12basic_stringIcNS_11char_traitsIcEENS1_IcEEEEEENS_16reverse_iteratorIPS6_EEEclB8ue170006Ev, symObjAddr: 0x27A54, symBinAddr: 0x10004577C, symSize: 0x3A8 }
  - { offsetInCU: 0x1992C, offset: 0x33D0B, size: 0x8, addend: 0x0, symName: __ZNSt3__116reverse_iteratorINS0_IPNS_12basic_stringIcNS_11char_traitsIcEENS_9allocatorIcEEEEEEEC1B8ue170006ES8_, symObjAddr: 0x27E6C, symBinAddr: 0x100045B94, symSize: 0x248 }
  - { offsetInCU: 0x19969, offset: 0x33D48, size: 0x8, addend: 0x0, symName: __ZNSt3__116reverse_iteratorINS0_IPNS_12basic_stringIcNS_11char_traitsIcEENS_9allocatorIcEEEEEEEppB8ue170006Ev, symObjAddr: 0x283D0, symBinAddr: 0x1000460CC, symSize: 0x30 }
  - { offsetInCU: 0x1998F, offset: 0x33D6E, size: 0x8, addend: 0x0, symName: __ZNKSt3__116reverse_iteratorINS0_IPNS_12basic_stringIcNS_11char_traitsIcEENS_9allocatorIcEEEEEEE4baseB8ue170006Ev, symObjAddr: 0x28400, symBinAddr: 0x1000460FC, symSize: 0x20C }
  - { offsetInCU: 0x199BB, offset: 0x33D9A, size: 0x8, addend: 0x0, symName: __ZNSt3__119__to_address_helperINS_16reverse_iteratorINS1_IPNS_12basic_stringIcNS_11char_traitsIcEENS_9allocatorIcEEEEEEEEvE6__callB8ue170006ERKSA_, symObjAddr: 0x28634, symBinAddr: 0x100046308, symSize: 0x58 }
  - { offsetInCU: 0x199DE, offset: 0x33DBD, size: 0x8, addend: 0x0, symName: __ZNKSt3__116reverse_iteratorINS0_IPNS_12basic_stringIcNS_11char_traitsIcEENS_9allocatorIcEEEEEEEptB8ue170006Ev, symObjAddr: 0x2868C, symBinAddr: 0x100046360, symSize: 0x24 }
  - { offsetInCU: 0x19A04, offset: 0x33DE3, size: 0x8, addend: 0x0, symName: __ZNKSt3__116reverse_iteratorINS0_IPNS_12basic_stringIcNS_11char_traitsIcEENS_9allocatorIcEEEEEEEdeB8ue170006Ev, symObjAddr: 0x286B0, symBinAddr: 0x100046384, symSize: 0x1EC }
  - { offsetInCU: 0x19A3D, offset: 0x33E1C, size: 0x8, addend: 0x0, symName: __ZNSt3__116reverse_iteratorIPNS_12basic_stringIcNS_11char_traitsIcEENS_9allocatorIcEEEEEmmB8ue170006Ev, symObjAddr: 0x2889C, symBinAddr: 0x100046570, symSize: 0x6C }
  - { offsetInCU: 0x19A63, offset: 0x33E42, size: 0x8, addend: 0x0, symName: __ZNSt3__116reverse_iteratorINS0_IPNS_12basic_stringIcNS_11char_traitsIcEENS_9allocatorIcEEEEEEEC2B8ue170006ES8_, symObjAddr: 0x28908, symBinAddr: 0x1000465DC, symSize: 0x22C }
  - { offsetInCU: 0x19AA0, offset: 0x33E7F, size: 0x8, addend: 0x0, symName: __ZNSt3__116reverse_iteratorIPNS_12basic_stringIcNS_11char_traitsIcEENS_9allocatorIcEEEEEC2B8ue170006ES7_, symObjAddr: 0x28B34, symBinAddr: 0x100046808, symSize: 0xB8 }
  - { offsetInCU: 0x19AD8, offset: 0x33EB7, size: 0x8, addend: 0x0, symName: __ZNSt3__114__split_bufferINS_12basic_stringIcNS_11char_traitsIcEENS_9allocatorIcEEEERNS4_IS6_EEED2Ev, symObjAddr: 0x28BEC, symBinAddr: 0x1000468C0, symSize: 0xEC }
  - { offsetInCU: 0x19B04, offset: 0x33EE3, size: 0x8, addend: 0x0, symName: __ZNSt3__114__split_bufferINS_12basic_stringIcNS_11char_traitsIcEENS_9allocatorIcEEEERNS4_IS6_EEE5clearB8ue170006Ev, symObjAddr: 0x28CD8, symBinAddr: 0x1000469AC, symSize: 0x68 }
  - { offsetInCU: 0x19B2A, offset: 0x33F09, size: 0x8, addend: 0x0, symName: __ZNKSt3__114__split_bufferINS_12basic_stringIcNS_11char_traitsIcEENS_9allocatorIcEEEERNS4_IS6_EEE8capacityB8ue170006Ev, symObjAddr: 0x28D74, symBinAddr: 0x100046A14, symSize: 0xBC }
  - { offsetInCU: 0x19B50, offset: 0x33F2F, size: 0x8, addend: 0x0, symName: __ZNSt3__114__split_bufferINS_12basic_stringIcNS_11char_traitsIcEENS_9allocatorIcEEEERNS4_IS6_EEE17__destruct_at_endB8ue170006EPS6_, symObjAddr: 0x28E30, symBinAddr: 0x100046AD0, symSize: 0x2C }
  - { offsetInCU: 0x19B84, offset: 0x33F63, size: 0x8, addend: 0x0, symName: __ZNSt3__114__split_bufferINS_12basic_stringIcNS_11char_traitsIcEENS_9allocatorIcEEEERNS4_IS6_EEE17__destruct_at_endB8ue170006EPS6_NS_17integral_constantIbLb0EEE, symObjAddr: 0x28E5C, symBinAddr: 0x100046AFC, symSize: 0x120 }
  - { offsetInCU: 0x19BC5, offset: 0x33FA4, size: 0x8, addend: 0x0, symName: __ZNKSt3__114__split_bufferINS_12basic_stringIcNS_11char_traitsIcEENS_9allocatorIcEEEERNS4_IS6_EEE9__end_capB8ue170006Ev, symObjAddr: 0x28FFC, symBinAddr: 0x100046C1C, symSize: 0x28 }
  - { offsetInCU: 0x19BEB, offset: 0x33FCA, size: 0x8, addend: 0x0, symName: __ZNKSt3__117__compressed_pairIPNS_12basic_stringIcNS_11char_traitsIcEENS_9allocatorIcEEEERNS4_IS6_EEE5firstB8ue170006Ev, symObjAddr: 0x29024, symBinAddr: 0x100046C44, symSize: 0x24 }
  - { offsetInCU: 0x19C11, offset: 0x33FF0, size: 0x8, addend: 0x0, symName: __ZNSt3__111char_traitsIcE4findB8ue170006EPKcmRS2_, symObjAddr: 0x2B0A8, symBinAddr: 0x100046D8C, symSize: 0x100 }
  - { offsetInCU: 0x19C50, offset: 0x3402F, size: 0x8, addend: 0x0, symName: __ZNSt3__14pairINS_12basic_stringIcNS_11char_traitsIcEENS_9allocatorIcEEEE7ChannelEC1B8ue170006ERKS6_RKS7_, symObjAddr: 0x2B6D4, symBinAddr: 0x10004738C, symSize: 0x3C }
  - { offsetInCU: 0x19C96, offset: 0x34075, size: 0x8, addend: 0x0, symName: __ZNSt3__14pairINS_12basic_stringIcNS_11char_traitsIcEENS_9allocatorIcEEEE7ChannelEC2B8ue170006ERKS6_RKS7_, symObjAddr: 0x2B710, symBinAddr: 0x1000473C8, symSize: 0x84 }
  - { offsetInCU: 0x19CDC, offset: 0x340BB, size: 0x8, addend: 0x0, symName: __ZN7ChannelC1ERKS_, symObjAddr: 0x2B794, symBinAddr: 0x10004744C, symSize: 0x34 }
  - { offsetInCU: 0x19D11, offset: 0x340F0, size: 0x8, addend: 0x0, symName: __ZN7ChannelC2ERKS_, symObjAddr: 0x2B7C8, symBinAddr: 0x100047480, symSize: 0x298 }
  - { offsetInCU: 0x19D46, offset: 0x34125, size: 0x8, addend: 0x0, symName: __ZNSt3__16__treeINS_12__value_typeINS_12basic_stringIcNS_11char_traitsIcEENS_9allocatorIcEEEE7ChannelEENS_19__map_value_compareIS7_S9_NS_4lessIS7_EELb1EEENS5_IS9_EEE15__insert_uniqueB8ue170006ERKNS_4pairIKS7_S8_EE, symObjAddr: 0x2BA60, symBinAddr: 0x100047718, symSize: 0x238 }
  - { offsetInCU: 0x19D7D, offset: 0x3415C, size: 0x8, addend: 0x0, symName: __ZNSt3__14pairINS_14__map_iteratorINS_15__tree_iteratorINS_12__value_typeINS_12basic_stringIcNS_11char_traitsIcEENS_9allocatorIcEEEE7ChannelEEPNS_11__tree_nodeISB_PvEElEEEEbEC1B8ue170006ISG_bEERKNS0_IT_T0_EE, symObjAddr: 0x2BC98, symBinAddr: 0x100047950, symSize: 0x34 }
  - { offsetInCU: 0x19DC7, offset: 0x341A6, size: 0x8, addend: 0x0, symName: __ZNSt3__16__treeINS_12__value_typeINS_12basic_stringIcNS_11char_traitsIcEENS_9allocatorIcEEEE7ChannelEENS_19__map_value_compareIS7_S9_NS_4lessIS7_EELb1EEENS5_IS9_EEE25__emplace_unique_key_argsIS7_JRKNS_4pairIKS7_S8_EEEEENSH_INS_15__tree_iteratorIS9_PNS_11__tree_nodeIS9_PvEElEEbEERKT_DpOT0_, symObjAddr: 0x2BCCC, symBinAddr: 0x100047984, symSize: 0x510 }
  - { offsetInCU: 0x19E83, offset: 0x34262, size: 0x8, addend: 0x0, symName: __ZNSt3__122__tree_key_value_typesINS_12__value_typeINS_12basic_stringIcNS_11char_traitsIcEENS_9allocatorIcEEEE7ChannelEEE9__get_keyB8ue170006IKNS_4pairIKS7_S8_EEEENS_9enable_ifIXsr17__is_same_uncvrefIT_SE_EE5valueERSD_E4typeERSH_, symObjAddr: 0x2C1DC, symBinAddr: 0x100047E94, symSize: 0x14 }
  - { offsetInCU: 0x19EB0, offset: 0x3428F, size: 0x8, addend: 0x0, symName: __ZNSt3__16__treeINS_12__value_typeINS_12basic_stringIcNS_11char_traitsIcEENS_9allocatorIcEEEE7ChannelEENS_19__map_value_compareIS7_S9_NS_4lessIS7_EELb1EEENS5_IS9_EEE12__find_equalIS7_EERPNS_16__tree_node_baseIPvEERPNS_15__tree_end_nodeISK_EERKT_, symObjAddr: 0x2C1F0, symBinAddr: 0x100047EA8, symSize: 0x3F0 }
  - { offsetInCU: 0x19F1D, offset: 0x342FC, size: 0x8, addend: 0x0, symName: __ZNSt3__16__treeINS_12__value_typeINS_12basic_stringIcNS_11char_traitsIcEENS_9allocatorIcEEEE7ChannelEENS_19__map_value_compareIS7_S9_NS_4lessIS7_EELb1EEENS5_IS9_EEE16__construct_nodeIJRKNS_4pairIKS7_S8_EEEEENS_10unique_ptrINS_11__tree_nodeIS9_PvEENS_22__tree_node_destructorINS5_ISP_EEEEEEDpOT_, symObjAddr: 0x2C5E0, symBinAddr: 0x100048298, symSize: 0x398 }
  - { offsetInCU: 0x19F82, offset: 0x34361, size: 0x8, addend: 0x0, symName: __ZNSt3__16__treeINS_12__value_typeINS_12basic_stringIcNS_11char_traitsIcEENS_9allocatorIcEEEE7ChannelEENS_19__map_value_compareIS7_S9_NS_4lessIS7_EELb1EEENS5_IS9_EEE16__insert_node_atEPNS_15__tree_end_nodeIPNS_16__tree_node_baseIPvEEEERSK_SK_, symObjAddr: 0x2C978, symBinAddr: 0x100048630, symSize: 0x370 }
  - { offsetInCU: 0x19FD7, offset: 0x343B6, size: 0x8, addend: 0x0, symName: __ZNKSt3__110unique_ptrINS_11__tree_nodeINS_12__value_typeINS_12basic_stringIcNS_11char_traitsIcEENS_9allocatorIcEEEE7ChannelEEPvEENS_22__tree_node_destructorINS6_ISC_EEEEE3getB8ue170006Ev, symObjAddr: 0x2CCE8, symBinAddr: 0x1000489A0, symSize: 0x6C }
  - { offsetInCU: 0x19FFD, offset: 0x343DC, size: 0x8, addend: 0x0, symName: __ZNSt3__110unique_ptrINS_11__tree_nodeINS_12__value_typeINS_12basic_stringIcNS_11char_traitsIcEENS_9allocatorIcEEEE7ChannelEEPvEENS_22__tree_node_destructorINS6_ISC_EEEEE7releaseB8ue170006Ev, symObjAddr: 0x2CD54, symBinAddr: 0x100048A0C, symSize: 0xB8 }
  - { offsetInCU: 0x1A032, offset: 0x34411, size: 0x8, addend: 0x0, symName: __ZNSt3__110unique_ptrINS_11__tree_nodeINS_12__value_typeINS_12basic_stringIcNS_11char_traitsIcEENS_9allocatorIcEEEE7ChannelEEPvEENS_22__tree_node_destructorINS6_ISC_EEEEED1B8ue170006Ev, symObjAddr: 0x2CE0C, symBinAddr: 0x100048AC4, symSize: 0x2C }
  - { offsetInCU: 0x1A05C, offset: 0x3443B, size: 0x8, addend: 0x0, symName: __ZNSt3__115__tree_iteratorINS_12__value_typeINS_12basic_stringIcNS_11char_traitsIcEENS_9allocatorIcEEEE7ChannelEEPNS_11__tree_nodeIS9_PvEElEC1B8ue170006ESD_, symObjAddr: 0x2CE38, symBinAddr: 0x100048AF0, symSize: 0x34 }
  - { offsetInCU: 0x1A095, offset: 0x34474, size: 0x8, addend: 0x0, symName: __ZNSt3__14pairINS_15__tree_iteratorINS_12__value_typeINS_12basic_stringIcNS_11char_traitsIcEENS_9allocatorIcEEEE7ChannelEEPNS_11__tree_nodeISA_PvEElEEbEC1B8ue170006ERKSF_RKb, symObjAddr: 0x2CE6C, symBinAddr: 0x100048B24, symSize: 0x3C }
  - { offsetInCU: 0x1A0DB, offset: 0x344BA, size: 0x8, addend: 0x0, symName: __ZNKSt3__16__treeINS_12__value_typeINS_12basic_stringIcNS_11char_traitsIcEENS_9allocatorIcEEEE7ChannelEENS_19__map_value_compareIS7_S9_NS_4lessIS7_EELb1EEENS5_IS9_EEE10__root_ptrB8ue170006Ev, symObjAddr: 0x2CEA8, symBinAddr: 0x100048B60, symSize: 0x24 }
  - { offsetInCU: 0x1A101, offset: 0x344E0, size: 0x8, addend: 0x0, symName: __ZNSt3__116allocator_traitsINS_9allocatorINS_11__tree_nodeINS_12__value_typeINS_12basic_stringIcNS_11char_traitsIcEENS1_IcEEEE7ChannelEEPvEEEEE8allocateB8ue170006ERSD_m, symObjAddr: 0x2CEF4, symBinAddr: 0x100048B84, symSize: 0x2C }
  - { offsetInCU: 0x1A134, offset: 0x34513, size: 0x8, addend: 0x0, symName: __ZNSt3__122__tree_node_destructorINS_9allocatorINS_11__tree_nodeINS_12__value_typeINS_12basic_stringIcNS_11char_traitsIcEENS1_IcEEEE7ChannelEEPvEEEEEC1B8ue170006ERSD_b, symObjAddr: 0x2CF20, symBinAddr: 0x100048BB0, symSize: 0x48 }
  - { offsetInCU: 0x1A182, offset: 0x34561, size: 0x8, addend: 0x0, symName: __ZNSt3__110unique_ptrINS_11__tree_nodeINS_12__value_typeINS_12basic_stringIcNS_11char_traitsIcEENS_9allocatorIcEEEE7ChannelEEPvEENS_22__tree_node_destructorINS6_ISC_EEEEEC1B8ue170006ILb1EvEEPSC_NS_16__dependent_typeINS_27__unique_ptr_deleter_sfinaeISF_EEXT_EE20__good_rval_ref_typeE, symObjAddr: 0x2CF68, symBinAddr: 0x100048BF8, symSize: 0x3C }
  - { offsetInCU: 0x1A1D3, offset: 0x345B2, size: 0x8, addend: 0x0, symName: __ZNSt3__116allocator_traitsINS_9allocatorINS_11__tree_nodeINS_12__value_typeINS_12basic_stringIcNS_11char_traitsIcEENS1_IcEEEE7ChannelEEPvEEEEE9constructB8ue170006INS_4pairIKS8_S9_EEJRKSI_EvEEvRSD_PT_DpOT0_, symObjAddr: 0x2CFA4, symBinAddr: 0x100048C34, symSize: 0x34 }
  - { offsetInCU: 0x1A22A, offset: 0x34609, size: 0x8, addend: 0x0, symName: __ZNKSt3__110unique_ptrINS_11__tree_nodeINS_12__value_typeINS_12basic_stringIcNS_11char_traitsIcEENS_9allocatorIcEEEE7ChannelEEPvEENS_22__tree_node_destructorINS6_ISC_EEEEEptB8ue170006Ev, symObjAddr: 0x2CFFC, symBinAddr: 0x100048C68, symSize: 0x6C }
  - { offsetInCU: 0x1A250, offset: 0x3462F, size: 0x8, addend: 0x0, symName: __ZNSt3__110unique_ptrINS_11__tree_nodeINS_12__value_typeINS_12basic_stringIcNS_11char_traitsIcEENS_9allocatorIcEEEE7ChannelEEPvEENS_22__tree_node_destructorINS6_ISC_EEEEE11get_deleterB8ue170006Ev, symObjAddr: 0x2D068, symBinAddr: 0x100048CD4, symSize: 0x24 }
  - { offsetInCU: 0x1A276, offset: 0x34655, size: 0x8, addend: 0x0, symName: __ZNSt3__19allocatorINS_11__tree_nodeINS_12__value_typeINS_12basic_stringIcNS_11char_traitsIcEENS0_IcEEEE7ChannelEEPvEEE8allocateB8ue170006Em, symObjAddr: 0x2D0C4, symBinAddr: 0x100048CF8, symSize: 0x90 }
  - { offsetInCU: 0x1A2B4, offset: 0x34693, size: 0x8, addend: 0x0, symName: __ZNSt3__116allocator_traitsINS_9allocatorINS_11__tree_nodeINS_12__value_typeINS_12basic_stringIcNS_11char_traitsIcEENS1_IcEEEE7ChannelEEPvEEEEE8max_sizeB8ue170006ISD_vEEmRKSD_, symObjAddr: 0x2D154, symBinAddr: 0x100048D88, symSize: 0x24 }
  - { offsetInCU: 0x1A2E2, offset: 0x346C1, size: 0x8, addend: 0x0, symName: __ZNKSt3__19allocatorINS_11__tree_nodeINS_12__value_typeINS_12basic_stringIcNS_11char_traitsIcEENS0_IcEEEE7ChannelEEPvEEE8max_sizeB8ue170006Ev, symObjAddr: 0x2D178, symBinAddr: 0x100048DAC, symSize: 0x20 }
  - { offsetInCU: 0x1A308, offset: 0x346E7, size: 0x8, addend: 0x0, symName: __ZNSt3__122__tree_node_destructorINS_9allocatorINS_11__tree_nodeINS_12__value_typeINS_12basic_stringIcNS_11char_traitsIcEENS1_IcEEEE7ChannelEEPvEEEEEC2B8ue170006ERSD_b, symObjAddr: 0x2D198, symBinAddr: 0x100048DCC, symSize: 0xF0 }
  - { offsetInCU: 0x1A350, offset: 0x3472F, size: 0x8, addend: 0x0, symName: __ZNSt3__110unique_ptrINS_11__tree_nodeINS_12__value_typeINS_12basic_stringIcNS_11char_traitsIcEENS_9allocatorIcEEEE7ChannelEEPvEENS_22__tree_node_destructorINS6_ISC_EEEEEC2B8ue170006ILb1EvEEPSC_NS_16__dependent_typeINS_27__unique_ptr_deleter_sfinaeISF_EEXT_EE20__good_rval_ref_typeE, symObjAddr: 0x2D288, symBinAddr: 0x100048EBC, symSize: 0x230 }
  - { offsetInCU: 0x1A3A7, offset: 0x34786, size: 0x8, addend: 0x0, symName: __ZNSt3__117__compressed_pairIPNS_11__tree_nodeINS_12__value_typeINS_12basic_stringIcNS_11char_traitsIcEENS_9allocatorIcEEEE7ChannelEEPvEENS_22__tree_node_destructorINS6_ISC_EEEEEC1B8ue170006IRSD_SG_EEOT_OT0_, symObjAddr: 0x2D4B8, symBinAddr: 0x1000490EC, symSize: 0x3C }
  - { offsetInCU: 0x1A3FF, offset: 0x347DE, size: 0x8, addend: 0x0, symName: __ZNSt3__117__compressed_pairIPNS_11__tree_nodeINS_12__value_typeINS_12basic_stringIcNS_11char_traitsIcEENS_9allocatorIcEEEE7ChannelEEPvEENS_22__tree_node_destructorINS6_ISC_EEEEEC2B8ue170006IRSD_SG_EEOT_OT0_, symObjAddr: 0x2D4F4, symBinAddr: 0x100049128, symSize: 0x48 }
  - { offsetInCU: 0x1A457, offset: 0x34836, size: 0x8, addend: 0x0, symName: __ZNSt3__122__compressed_pair_elemIPNS_11__tree_nodeINS_12__value_typeINS_12basic_stringIcNS_11char_traitsIcEENS_9allocatorIcEEEE7ChannelEEPvEELi0ELb0EEC2B8ue170006IRSD_vEEOT_, symObjAddr: 0x2D53C, symBinAddr: 0x100049170, symSize: 0xB0 }
  - { offsetInCU: 0x1A499, offset: 0x34878, size: 0x8, addend: 0x0, symName: __ZNSt3__122__compressed_pair_elemINS_22__tree_node_destructorINS_9allocatorINS_11__tree_nodeINS_12__value_typeINS_12basic_stringIcNS_11char_traitsIcEENS2_IcEEEE7ChannelEEPvEEEEEELi1ELb0EEC2B8ue170006ISF_vEEOT_, symObjAddr: 0x2D5EC, symBinAddr: 0x100049220, symSize: 0x38 }
  - { offsetInCU: 0x1A4DB, offset: 0x348BA, size: 0x8, addend: 0x0, symName: __ZNSt3__19allocatorINS_11__tree_nodeINS_12__value_typeINS_12basic_stringIcNS_11char_traitsIcEENS0_IcEEEE7ChannelEEPvEEE9constructB8ue170006INS_4pairIKS7_S8_EEJRKSG_EEEvPT_DpOT0_, symObjAddr: 0x2D624, symBinAddr: 0x100049258, symSize: 0x30 }
  - { offsetInCU: 0x1A531, offset: 0x34910, size: 0x8, addend: 0x0, symName: __ZNSt3__14pairIKNS_12basic_stringIcNS_11char_traitsIcEENS_9allocatorIcEEEE7ChannelEC1B8ue170006ERKS9_, symObjAddr: 0x2D654, symBinAddr: 0x100049288, symSize: 0x34 }
  - { offsetInCU: 0x1A566, offset: 0x34945, size: 0x8, addend: 0x0, symName: __ZNSt3__14pairIKNS_12basic_stringIcNS_11char_traitsIcEENS_9allocatorIcEEEE7ChannelEC2B8ue170006ERKS9_, symObjAddr: 0x2D688, symBinAddr: 0x1000492BC, symSize: 0x84 }
  - { offsetInCU: 0x1A59B, offset: 0x3497A, size: 0x8, addend: 0x0, symName: __ZNKSt3__117__compressed_pairIPNS_11__tree_nodeINS_12__value_typeINS_12basic_stringIcNS_11char_traitsIcEENS_9allocatorIcEEEE7ChannelEEPvEENS_22__tree_node_destructorINS6_ISC_EEEEE5firstB8ue170006Ev, symObjAddr: 0x2D70C, symBinAddr: 0x100049340, symSize: 0x24 }
  - { offsetInCU: 0x1A5C1, offset: 0x349A0, size: 0x8, addend: 0x0, symName: __ZNKSt3__122__compressed_pair_elemIPNS_11__tree_nodeINS_12__value_typeINS_12basic_stringIcNS_11char_traitsIcEENS_9allocatorIcEEEE7ChannelEEPvEELi0ELb0EE5__getB8ue170006Ev, symObjAddr: 0x2D730, symBinAddr: 0x100049364, symSize: 0x14 }
  - { offsetInCU: 0x1A5E7, offset: 0x349C6, size: 0x8, addend: 0x0, symName: __ZNSt3__117__compressed_pairIPNS_11__tree_nodeINS_12__value_typeINS_12basic_stringIcNS_11char_traitsIcEENS_9allocatorIcEEEE7ChannelEEPvEENS_22__tree_node_destructorINS6_ISC_EEEEE6secondB8ue170006Ev, symObjAddr: 0x2D744, symBinAddr: 0x100049378, symSize: 0x28 }
  - { offsetInCU: 0x1A60D, offset: 0x349EC, size: 0x8, addend: 0x0, symName: __ZNSt3__122__compressed_pair_elemINS_22__tree_node_destructorINS_9allocatorINS_11__tree_nodeINS_12__value_typeINS_12basic_stringIcNS_11char_traitsIcEENS2_IcEEEE7ChannelEEPvEEEEEELi1ELb0EE5__getB8ue170006Ev, symObjAddr: 0x2D76C, symBinAddr: 0x1000493A0, symSize: 0x14 }
  - { offsetInCU: 0x1A633, offset: 0x34A12, size: 0x8, addend: 0x0, symName: __ZNSt3__16__treeINS_12__value_typeINS_12basic_stringIcNS_11char_traitsIcEENS_9allocatorIcEEEE7ChannelEENS_19__map_value_compareIS7_S9_NS_4lessIS7_EELb1EEENS5_IS9_EEE4sizeB8ue170006Ev, symObjAddr: 0x2D794, symBinAddr: 0x1000493B4, symSize: 0x28 }
  - { offsetInCU: 0x1A659, offset: 0x34A38, size: 0x8, addend: 0x0, symName: __ZNSt3__117__compressed_pairImNS_19__map_value_compareINS_12basic_stringIcNS_11char_traitsIcEENS_9allocatorIcEEEENS_12__value_typeIS7_7ChannelEENS_4lessIS7_EELb1EEEE5firstB8ue170006Ev, symObjAddr: 0x2D7BC, symBinAddr: 0x1000493DC, symSize: 0x24 }
  - { offsetInCU: 0x1A67F, offset: 0x34A5E, size: 0x8, addend: 0x0, symName: __ZNSt3__117__compressed_pairIPNS_11__tree_nodeINS_12__value_typeINS_12basic_stringIcNS_11char_traitsIcEENS_9allocatorIcEEEE7ChannelEEPvEENS_22__tree_node_destructorINS6_ISC_EEEEE5firstB8ue170006Ev, symObjAddr: 0x2D7E0, symBinAddr: 0x100049400, symSize: 0x24 }
  - { offsetInCU: 0x1A6A5, offset: 0x34A84, size: 0x8, addend: 0x0, symName: __ZNSt3__122__compressed_pair_elemIPNS_11__tree_nodeINS_12__value_typeINS_12basic_stringIcNS_11char_traitsIcEENS_9allocatorIcEEEE7ChannelEEPvEELi0ELb0EE5__getB8ue170006Ev, symObjAddr: 0x2D804, symBinAddr: 0x100049424, symSize: 0x14 }
  - { offsetInCU: 0x1A6CB, offset: 0x34AAA, size: 0x8, addend: 0x0, symName: __ZNSt3__110unique_ptrINS_11__tree_nodeINS_12__value_typeINS_12basic_stringIcNS_11char_traitsIcEENS_9allocatorIcEEEE7ChannelEEPvEENS_22__tree_node_destructorINS6_ISC_EEEEED2B8ue170006Ev, symObjAddr: 0x2D818, symBinAddr: 0x100049438, symSize: 0x30 }
  - { offsetInCU: 0x1A6F5, offset: 0x34AD4, size: 0x8, addend: 0x0, symName: __ZNSt3__110unique_ptrINS_11__tree_nodeINS_12__value_typeINS_12basic_stringIcNS_11char_traitsIcEENS_9allocatorIcEEEE7ChannelEEPvEENS_22__tree_node_destructorINS6_ISC_EEEEE5resetB8ue170006EPSC_, symObjAddr: 0x2D848, symBinAddr: 0x100049468, symSize: 0xEC }
  - { offsetInCU: 0x1A739, offset: 0x34B18, size: 0x8, addend: 0x0, symName: __ZNSt3__122__tree_node_destructorINS_9allocatorINS_11__tree_nodeINS_12__value_typeINS_12basic_stringIcNS_11char_traitsIcEENS1_IcEEEE7ChannelEEPvEEEEEclB8ue170006EPSC_, symObjAddr: 0x2D934, symBinAddr: 0x100049554, symSize: 0x174 }
  - { offsetInCU: 0x1A76E, offset: 0x34B4D, size: 0x8, addend: 0x0, symName: __ZNSt3__115__tree_iteratorINS_12__value_typeINS_12basic_stringIcNS_11char_traitsIcEENS_9allocatorIcEEEE7ChannelEEPNS_11__tree_nodeIS9_PvEElEC2B8ue170006ESD_, symObjAddr: 0x2DB84, symBinAddr: 0x1000496C8, symSize: 0x70 }
  - { offsetInCU: 0x1A7A7, offset: 0x34B86, size: 0x8, addend: 0x0, symName: __ZNSt3__14pairINS_15__tree_iteratorINS_12__value_typeINS_12basic_stringIcNS_11char_traitsIcEENS_9allocatorIcEEEE7ChannelEEPNS_11__tree_nodeISA_PvEElEEbEC2B8ue170006ERKSF_RKb, symObjAddr: 0x2DBF4, symBinAddr: 0x100049738, symSize: 0x120 }
  - { offsetInCU: 0x1A7ED, offset: 0x34BCC, size: 0x8, addend: 0x0, symName: __ZNSt3__14pairINS_14__map_iteratorINS_15__tree_iteratorINS_12__value_typeINS_12basic_stringIcNS_11char_traitsIcEENS_9allocatorIcEEEE7ChannelEEPNS_11__tree_nodeISB_PvEElEEEEbEC2B8ue170006ISG_bEERKNS0_IT_T0_EE, symObjAddr: 0x2DD14, symBinAddr: 0x100049858, symSize: 0x2E8 }
  - { offsetInCU: 0x1A839, offset: 0x34C18, size: 0x8, addend: 0x0, symName: __ZNSt3__14pairIKNS_12basic_stringIcNS_11char_traitsIcEENS_9allocatorIcEEEE7ChannelEC2B8ue170006IS6_S8_EERKNS0_IT_T0_EE, symObjAddr: 0x2DFFC, symBinAddr: 0x100049B40, symSize: 0x84 }
  - { offsetInCU: 0x1A883, offset: 0x34C62, size: 0x8, addend: 0x0, symName: __ZNSt3__116allocator_traitsINS_9allocatorIcEEE37select_on_container_copy_constructionB8ue170006IS2_vvEES2_RKS2_, symObjAddr: 0x2E080, symBinAddr: 0x100049BC4, symSize: 0x10 }
  - { offsetInCU: 0x1A8B2, offset: 0x34C91, size: 0x8, addend: 0x0, symName: __ZNKSt3__112basic_stringIcNS_11char_traitsIcEENS_9allocatorIcEEE13get_allocatorB8ue170006Ev, symObjAddr: 0x2E090, symBinAddr: 0x100049BD4, symSize: 0x24 }
  - { offsetInCU: 0x1A8D8, offset: 0x34CB7, size: 0x8, addend: 0x0, symName: __ZNSt3__112basic_stringIcNS_11char_traitsIcEENS_9allocatorIcEEEC1B8ue170006ENS_24__uninitialized_size_tagEmRKS4_, symObjAddr: 0x2E0B4, symBinAddr: 0x100049BF8, symSize: 0x3C }
  - { offsetInCU: 0x1A92B, offset: 0x34D0A, size: 0x8, addend: 0x0, symName: __ZNSt3__111char_traitsIcE4copyB8ue170006EPcPKcm, symObjAddr: 0x2E158, symBinAddr: 0x100049C48, symSize: 0x70 }
  - { offsetInCU: 0x1A96A, offset: 0x34D49, size: 0x8, addend: 0x0, symName: __ZNSt3__111char_traitsIcE6assignB8ue170006EPcmc, symObjAddr: 0x2E1C8, symBinAddr: 0x100049CB8, symSize: 0x250 }
  - { offsetInCU: 0x1A9AF, offset: 0x34D8E, size: 0x8, addend: 0x0, symName: __ZNKSt3__112basic_stringIcNS_11char_traitsIcEENS_9allocatorIcEEE7__allocB8ue170006Ev, symObjAddr: 0x2E418, symBinAddr: 0x100049F08, symSize: 0x24 }
  - { offsetInCU: 0x1A9D5, offset: 0x34DB4, size: 0x8, addend: 0x0, symName: __ZNKSt3__117__compressed_pairINS_12basic_stringIcNS_11char_traitsIcEENS_9allocatorIcEEE5__repES5_E6secondB8ue170006Ev, symObjAddr: 0x2E43C, symBinAddr: 0x100049F2C, symSize: 0x24 }
  - { offsetInCU: 0x1A9FB, offset: 0x34DDA, size: 0x8, addend: 0x0, symName: __ZNKSt3__122__compressed_pair_elemINS_9allocatorIcEELi1ELb1EE5__getB8ue170006Ev, symObjAddr: 0x2E460, symBinAddr: 0x100049F50, symSize: 0x14 }
  - { offsetInCU: 0x1AA21, offset: 0x34E00, size: 0x8, addend: 0x0, symName: __ZNSt3__112basic_stringIcNS_11char_traitsIcEENS_9allocatorIcEEEC2B8ue170006ENS_24__uninitialized_size_tagEmRKS4_, symObjAddr: 0x2E474, symBinAddr: 0x100049F64, symSize: 0x324 }
  - { offsetInCU: 0x1AAA7, offset: 0x34E86, size: 0x8, addend: 0x0, symName: __ZNSt3__117__compressed_pairINS_12basic_stringIcNS_11char_traitsIcEENS_9allocatorIcEEE5__repES5_EC1B8ue170006INS_18__default_init_tagERKS5_EEOT_OT0_, symObjAddr: 0x2E798, symBinAddr: 0x10004A288, symSize: 0x3C }
  - { offsetInCU: 0x1AAFF, offset: 0x34EDE, size: 0x8, addend: 0x0, symName: __ZNKSt3__112basic_stringIcNS_11char_traitsIcEENS_9allocatorIcEEE8max_sizeB8ue170006Ev, symObjAddr: 0x2E7D4, symBinAddr: 0x10004A2C4, symSize: 0xBC }
  - { offsetInCU: 0x1AB52, offset: 0x34F31, size: 0x8, addend: 0x0, symName: __ZNKSt3__112basic_stringIcNS_11char_traitsIcEENS_9allocatorIcEEE20__throw_length_errorB8ue170006Ev, symObjAddr: 0x2E890, symBinAddr: 0x10004A380, symSize: 0x20 }
  - { offsetInCU: 0x1AB78, offset: 0x34F57, size: 0x8, addend: 0x0, symName: __ZNSt3__112basic_stringIcNS_11char_traitsIcEENS_9allocatorIcEEE13__fits_in_ssoB8ue170006Em, symObjAddr: 0x2E8B0, symBinAddr: 0x10004A3A0, symSize: 0x4C }
  - { offsetInCU: 0x1AB9C, offset: 0x34F7B, size: 0x8, addend: 0x0, symName: __ZNSt3__117__compressed_pairINS_12basic_stringIcNS_11char_traitsIcEENS_9allocatorIcEEE5__repES5_EC2B8ue170006INS_18__default_init_tagERKS5_EEOT_OT0_, symObjAddr: 0x2E8FC, symBinAddr: 0x10004A3EC, symSize: 0x40 }
  - { offsetInCU: 0x1ABF4, offset: 0x34FD3, size: 0x8, addend: 0x0, symName: __ZNSt3__122__compressed_pair_elemINS_9allocatorIcEELi1ELb1EEC2B8ue170006IRKS2_vEEOT_, symObjAddr: 0x2E93C, symBinAddr: 0x10004A42C, symSize: 0x18 }
  - { offsetInCU: 0x1AC36, offset: 0x35015, size: 0x8, addend: 0x0, symName: __ZNSt3__114numeric_limitsImE3maxB8ue170006Ev, symObjAddr: 0x2E954, symBinAddr: 0x10004A444, symSize: 0x14 }
  - { offsetInCU: 0x1AC4A, offset: 0x35029, size: 0x8, addend: 0x0, symName: __ZNSt3__123__libcpp_numeric_limitsImLb1EE3maxB8ue170006Ev, symObjAddr: 0x2E968, symBinAddr: 0x10004A458, symSize: 0x8 }
  - { offsetInCU: 0x1AC96, offset: 0x35075, size: 0x8, addend: 0x0, symName: __ZNKSt3__114__copy_trivialclB8ue170006IKccLi0EEENS_4pairIPT_PT0_EES5_S5_S7_, symObjAddr: 0x2F954, symBinAddr: 0x10004B444, symSize: 0x230 }
  - { offsetInCU: 0x1AD1C, offset: 0x350FB, size: 0x8, addend: 0x0, symName: __ZNSt3__14pairIPKcS2_EC1B8ue170006ERKS2_S5_, symObjAddr: 0x3006C, symBinAddr: 0x10004BB5C, symSize: 0x3C }
  - { offsetInCU: 0x1AD62, offset: 0x35141, size: 0x8, addend: 0x0, symName: __ZNSt3__14pairIPKcS2_EC2B8ue170006ERKS2_S5_, symObjAddr: 0x300A8, symBinAddr: 0x10004BB98, symSize: 0x138 }
  - { offsetInCU: 0x1ADA8, offset: 0x35187, size: 0x8, addend: 0x0, symName: __ZNSt3__118__unwrap_iter_implIPKcLb1EE8__unwrapB8ue170006ES2_, symObjAddr: 0x301E0, symBinAddr: 0x10004BCD0, symSize: 0x24 }
  - { offsetInCU: 0x1ADCB, offset: 0x351AA, size: 0x8, addend: 0x0, symName: __ZNSt3__14pairIPKcPcEC1B8ue170006ERKS2_RKS3_, symObjAddr: 0x3086C, symBinAddr: 0x10004C35C, symSize: 0x3C }
  - { offsetInCU: 0x1AE11, offset: 0x351F0, size: 0x8, addend: 0x0, symName: __ZNSt3__14pairIPKcPcEC2B8ue170006ERKS2_RKS3_, symObjAddr: 0x308A8, symBinAddr: 0x10004C398, symSize: 0x138 }
  - { offsetInCU: 0x1AE57, offset: 0x35236, size: 0x8, addend: 0x0, symName: __ZNSt3__118__unwrap_iter_implIPcLb1EE8__unwrapB8ue170006ES1_, symObjAddr: 0x309E0, symBinAddr: 0x10004C4D0, symSize: 0x24 }
  - { offsetInCU: 0x1AE7A, offset: 0x35259, size: 0x8, addend: 0x0, symName: __ZNSt3__118__unwrap_iter_implIPKcLb1EE8__rewrapB8ue170006ES2_S2_, symObjAddr: 0x30A60, symBinAddr: 0x10004C550, symSize: 0x48 }
  - { offsetInCU: 0x1AEAB, offset: 0x3528A, size: 0x8, addend: 0x0, symName: __ZNSt3__118__unwrap_iter_implIPcLb1EE8__rewrapB8ue170006ES1_S1_, symObjAddr: 0x30AA8, symBinAddr: 0x10004C598, symSize: 0x48 }
  - { offsetInCU: 0x1AEDC, offset: 0x352BB, size: 0x8, addend: 0x0, symName: __ZNSt3__112basic_stringIcNS_11char_traitsIcEENS_9allocatorIcEEE6appendB8ue170006ERKS5_, symObjAddr: 0x30C80, symBinAddr: 0x10004C770, symSize: 0x4C }
  - { offsetInCU: 0x1AF11, offset: 0x352F0, size: 0x8, addend: 0x0, symName: __ZNSt3__120__map_const_iteratorINS_21__tree_const_iteratorINS_12__value_typeINS_12basic_stringIcNS_11char_traitsIcEENS_9allocatorIcEEEEP6ClientEEPNS_11__tree_nodeISB_PvEElEEEC2B8ue170006ENS_14__map_iteratorINS_15__tree_iteratorISB_SF_lEEEE, symObjAddr: 0x30CCC, symBinAddr: 0x10004C7BC, symSize: 0x288 }
  - { offsetInCU: 0x1AF4F, offset: 0x3532E, size: 0x8, addend: 0x0, symName: __ZNSt3__114pointer_traitsIPKNS_4pairIKNS_12basic_stringIcNS_11char_traitsIcEENS_9allocatorIcEEEEP6ClientEEE10pointer_toB8ue170006ERSC_, symObjAddr: 0x30F88, symBinAddr: 0x10004CA78, symSize: 0x14 }
  - { offsetInCU: 0x3B, offset: 0x35604, size: 0x8, addend: 0x0, symName: _.str, symObjAddr: 0x5680, symBinAddr: 0x10008D1A0, symSize: 0x0 }
  - { offsetInCU: 0x7F66, offset: 0x3D52F, size: 0x8, addend: 0x0, symName: __ZNSt3__14findB8ue170006INS_11__wrap_iterIPNS_12basic_stringIcNS_11char_traitsIcEENS_9allocatorIcEEEEEES7_EET_SA_SA_RKT0_, symObjAddr: 0xE3C, symBinAddr: 0x10004D9CC, symSize: 0x4AC }
  - { offsetInCU: 0x7FDC, offset: 0x3D5A5, size: 0x8, addend: 0x0, symName: __ZNSt3__1eqB8ue170006INS_9allocatorIcEEEEbRKNS_12basic_stringIcNS_11char_traitsIcEET_EES9_, symObjAddr: 0x2178, symBinAddr: 0x10004E270, symSize: 0x234 }
  - { offsetInCU: 0x804F, offset: 0x3D618, size: 0x8, addend: 0x0, symName: __ZNSt3__113__rewrap_iterB8ue170006INS_11__wrap_iterIPNS_12basic_stringIcNS_11char_traitsIcEENS_9allocatorIcEEEEEES8_NS_18__unwrap_iter_implIS9_Lb1EEEEET_SC_T0_, symObjAddr: 0x3260, symBinAddr: 0x10004E4A4, symSize: 0x34C }
  - { offsetInCU: 0x80A9, offset: 0x3D672, size: 0x8, addend: 0x0, symName: __ZNSt3__111__find_implB8ue170006IPNS_12basic_stringIcNS_11char_traitsIcEENS_9allocatorIcEEEES7_S6_NS_10__identityEEET_S9_T0_RKT1_RT2_, symObjAddr: 0x35AC, symBinAddr: 0x10004E7F0, symSize: 0x7C }
  - { offsetInCU: 0x8123, offset: 0x3D6EC, size: 0x8, addend: 0x0, symName: __ZNSt3__113__unwrap_iterB8ue170006INS_11__wrap_iterIPNS_12basic_stringIcNS_11char_traitsIcEENS_9allocatorIcEEEEEENS_18__unwrap_iter_implIS9_Lb1EEELi0EEEDTclsrT0_8__unwrapclsr3stdE7declvalIT_EEEESD_, symObjAddr: 0x3628, symBinAddr: 0x10004E86C, symSize: 0x274 }
  - { offsetInCU: 0x81BE, offset: 0x3D787, size: 0x8, addend: 0x0, symName: __ZNSt3__112__to_addressB8ue170006INS_11__wrap_iterIPNS_12basic_stringIcNS_11char_traitsIcEENS_9allocatorIcEEEEEEvEEu7__decayIDTclsr19__to_address_helperIT_EE6__callclsr3stdE7declvalIRKSA_EEEEESC_, symObjAddr: 0x3D7C, symBinAddr: 0x10004EFC0, symSize: 0x24 }
  - { offsetInCU: 0x8299, offset: 0x3D862, size: 0x8, addend: 0x0, symName: __ZNSt3__18__invokeB8ue170006IRNS_10__identityEJRNS_12basic_stringIcNS_11char_traitsIcEENS_9allocatorIcEEEEEEEDTclclsr3stdE7declvalIT_EEspclsr3stdE7declvalIT0_EEEEOSA_DpOSB_, symObjAddr: 0x4288, symBinAddr: 0x10004F458, symSize: 0x2C }
  - { offsetInCU: 0xA663, offset: 0x3FC2C, size: 0x8, addend: 0x0, symName: __ZN6ClientC2Ev, symObjAddr: 0x0, symBinAddr: 0x10004CCDC, symSize: 0x1C0 }
  - { offsetInCU: 0xA694, offset: 0x3FC5D, size: 0x8, addend: 0x0, symName: __ZN6ClientC1Ev, symObjAddr: 0x22C, symBinAddr: 0x10004CE9C, symSize: 0x2C }
  - { offsetInCU: 0xA6C0, offset: 0x3FC89, size: 0x8, addend: 0x0, symName: __ZN6ClientC2Ei, symObjAddr: 0x258, symBinAddr: 0x10004CEC8, symSize: 0x1D0 }
  - { offsetInCU: 0xA6FA, offset: 0x3FCC3, size: 0x8, addend: 0x0, symName: __ZN6ClientC1Ei, symObjAddr: 0x428, symBinAddr: 0x10004D098, symSize: 0x34 }
  - { offsetInCU: 0xA734, offset: 0x3FCFD, size: 0x8, addend: 0x0, symName: __ZN6Client11sendMessageERKNSt3__112basic_stringIcNS0_11char_traitsIcEENS0_9allocatorIcEEEE, symObjAddr: 0x45C, symBinAddr: 0x10004D0CC, symSize: 0xF8 }
  - { offsetInCU: 0xA76A, offset: 0x3FD33, size: 0x8, addend: 0x0, symName: __ZNK6Client12isRegisteredEv, symObjAddr: 0x5CC, symBinAddr: 0x10004D1C4, symSize: 0xE0 }
  - { offsetInCU: 0xA792, offset: 0x3FD5B, size: 0x8, addend: 0x0, symName: __ZN6Client20setIsCorrectPasswordEb, symObjAddr: 0x6E0, symBinAddr: 0x10004D2A4, symSize: 0xA4 }
  - { offsetInCU: 0xA7C8, offset: 0x3FD91, size: 0x8, addend: 0x0, symName: __ZN6Client11setNicknameERKNSt3__112basic_stringIcNS0_11char_traitsIcEENS0_9allocatorIcEEEE, symObjAddr: 0x784, symBinAddr: 0x10004D348, symSize: 0x30 }
  - { offsetInCU: 0xA7FE, offset: 0x3FDC7, size: 0x8, addend: 0x0, symName: __ZN6Client11setUsernameERKNSt3__112basic_stringIcNS0_11char_traitsIcEENS0_9allocatorIcEEEE, symObjAddr: 0x7B4, symBinAddr: 0x10004D378, symSize: 0x30 }
  - { offsetInCU: 0xA834, offset: 0x3FDFD, size: 0x8, addend: 0x0, symName: __ZNK6Client11getNicknameEv, symObjAddr: 0x7E4, symBinAddr: 0x10004D3A8, symSize: 0x18 }
  - { offsetInCU: 0xA85C, offset: 0x3FE25, size: 0x8, addend: 0x0, symName: __ZNK6Client11getUsernameEv, symObjAddr: 0x7FC, symBinAddr: 0x10004D3C0, symSize: 0x3C }
  - { offsetInCU: 0xA884, offset: 0x3FE4D, size: 0x8, addend: 0x0, symName: __ZNK6Client20getIsCorrectPasswordEv, symObjAddr: 0x838, symBinAddr: 0x10004D3FC, symSize: 0x8C }
  - { offsetInCU: 0xA8AC, offset: 0x3FE75, size: 0x8, addend: 0x0, symName: __ZN6Client5setFdEi, symObjAddr: 0x8C4, symBinAddr: 0x10004D488, symSize: 0x98 }
  - { offsetInCU: 0xA8E2, offset: 0x3FEAB, size: 0x8, addend: 0x0, symName: __ZNK6Client5getFdEv, symObjAddr: 0x95C, symBinAddr: 0x10004D520, symSize: 0x88 }
  - { offsetInCU: 0xB79F, offset: 0x40D68, size: 0x8, addend: 0x0, symName: __ZN6Server14isUserInServerENSt3__112basic_stringIcNS0_11char_traitsIcEENS0_9allocatorIcEEEE, symObjAddr: 0x9E4, symBinAddr: 0x10004D5A8, symSize: 0x424 }
  - { offsetInCU: 0xB7D8, offset: 0x40DA1, size: 0x8, addend: 0x0, symName: __ZN6Server9getClientENSt3__112basic_stringIcNS0_11char_traitsIcEENS0_9allocatorIcEEEE, symObjAddr: 0x17BC, symBinAddr: 0x10004DE78, symSize: 0x3CC }
  - { offsetInCU: 0xB838, offset: 0x40E01, size: 0x8, addend: 0x0, symName: __ZNSt3__114__map_iteratorINS_15__tree_iteratorINS_12__value_typeIiP6ClientEEPNS_11__tree_nodeIS5_PvEElEEEC1B8ue170006Ev, symObjAddr: 0x1B88, symBinAddr: 0x10004E244, symSize: 0x2C }
  - { offsetInCU: 0xB862, offset: 0x40E2B, size: 0x8, addend: 0x0, symName: __ZNSt3__118__unwrap_iter_implINS_11__wrap_iterIPNS_12basic_stringIcNS_11char_traitsIcEENS_9allocatorIcEEEEEELb1EE8__rewrapB8ue170006ES9_S8_, symObjAddr: 0x389C, symBinAddr: 0x10004EAE0, symSize: 0x2D4 }
  - { offsetInCU: 0xB898, offset: 0x40E61, size: 0x8, addend: 0x0, symName: __ZNKSt3__111__wrap_iterIPNS_12basic_stringIcNS_11char_traitsIcEENS_9allocatorIcEEEEEplB8ue170006El, symObjAddr: 0x3B70, symBinAddr: 0x10004EDB4, symSize: 0x20C }
  - { offsetInCU: 0xB8E0, offset: 0x40EA9, size: 0x8, addend: 0x0, symName: __ZNSt3__111__wrap_iterIPNS_12basic_stringIcNS_11char_traitsIcEENS_9allocatorIcEEEEEpLB8ue170006El, symObjAddr: 0x3DA0, symBinAddr: 0x10004EFE4, symSize: 0x80 }
  - { offsetInCU: 0xB91E, offset: 0x40EE7, size: 0x8, addend: 0x0, symName: __ZNSt3__119__to_address_helperINS_11__wrap_iterIPNS_12basic_stringIcNS_11char_traitsIcEENS_9allocatorIcEEEEEEvE6__callB8ue170006ERKS9_, symObjAddr: 0x3E20, symBinAddr: 0x10004F064, symSize: 0x200 }
  - { offsetInCU: 0xB942, offset: 0x40F0B, size: 0x8, addend: 0x0, symName: __ZNSt3__114pointer_traitsINS_11__wrap_iterIPNS_12basic_stringIcNS_11char_traitsIcEENS_9allocatorIcEEEEEEE10to_addressB8ue170006ES9_, symObjAddr: 0x4020, symBinAddr: 0x10004F264, symSize: 0x1F4 }
  - { offsetInCU: 0xB973, offset: 0x40F3C, size: 0x8, addend: 0x0, symName: __ZNKSt3__110__identityclB8ue170006IRNS_12basic_stringIcNS_11char_traitsIcEENS_9allocatorIcEEEEEEOT_SA_, symObjAddr: 0x42B4, symBinAddr: 0x10004F484, symSize: 0x18 }
  - { offsetInCU: 0xB9B0, offset: 0x40F79, size: 0x8, addend: 0x0, symName: __ZNSt3__118__unwrap_iter_implINS_11__wrap_iterIPNS_12basic_stringIcNS_11char_traitsIcEENS_9allocatorIcEEEEEELb1EE8__unwrapB8ue170006ES9_, symObjAddr: 0x42CC, symBinAddr: 0x10004F49C, symSize: 0x1F0 }
  - { offsetInCU: 0xB9D7, offset: 0x40FA0, size: 0x8, addend: 0x0, symName: __ZNSt3__114__map_iteratorINS_15__tree_iteratorINS_12__value_typeIiP6ClientEEPNS_11__tree_nodeIS5_PvEElEEEC2B8ue170006Ev, symObjAddr: 0x4504, symBinAddr: 0x10004F68C, symSize: 0x2C }
  - { offsetInCU: 0xBA01, offset: 0x40FCA, size: 0x8, addend: 0x0, symName: __ZNSt3__115__tree_iteratorINS_12__value_typeIiP6ClientEEPNS_11__tree_nodeIS4_PvEElEC1B8ue170006Ev, symObjAddr: 0x4530, symBinAddr: 0x10004F6B8, symSize: 0x2C }
  - { offsetInCU: 0xBA2B, offset: 0x40FF4, size: 0x8, addend: 0x0, symName: __ZNSt3__115__tree_iteratorINS_12__value_typeIiP6ClientEEPNS_11__tree_nodeIS4_PvEElEC2B8ue170006Ev, symObjAddr: 0x455C, symBinAddr: 0x10004F6E4, symSize: 0x14 }
  - { offsetInCU: 0x3B, offset: 0x4107C, size: 0x8, addend: 0x0, symName: _.str, symObjAddr: 0xE2E0, symBinAddr: 0x10008A740, symSize: 0x0 }
  - { offsetInCU: 0x6B, offset: 0x410AC, size: 0x8, addend: 0x0, symName: _.str.1, symObjAddr: 0xE3A0, symBinAddr: 0x10008D1E0, symSize: 0x0 }
  - { offsetInCU: 0x88, offset: 0x410C9, size: 0x8, addend: 0x0, symName: _.str.2, symObjAddr: 0xE300, symBinAddr: 0x10008A760, symSize: 0x0 }
  - { offsetInCU: 0xA5, offset: 0x410E6, size: 0x8, addend: 0x0, symName: _.str.3, symObjAddr: 0xE360, symBinAddr: 0x10008A7C0, symSize: 0x0 }
  - { offsetInCU: 0xB7, offset: 0x410F8, size: 0x8, addend: 0x0, symName: _.str.4, symObjAddr: 0xE380, symBinAddr: 0x10008A7E0, symSize: 0x0 }
  - { offsetInCU: 0x553A, offset: 0x4657B, size: 0x8, addend: 0x0, symName: __ZNSt3__1rsB8ue170006IcNS_11char_traitsIcEENS_9allocatorIcEEEERNS_13basic_istreamIT_T0_EES9_RNS_12basic_stringIS6_S7_T1_EE, symObjAddr: 0x2288, symBinAddr: 0x100051198, symSize: 0x9CC }
  - { offsetInCU: 0x9C69, offset: 0x4ACAA, size: 0x8, addend: 0x0, symName: __ZNSt3__1neB8ue170006IPKcEEbRKNS_11__wrap_iterIT_EES7_, symObjAddr: 0x36A0, symBinAddr: 0x1000525B0, symSize: 0x34 }
  - { offsetInCU: 0x9CAC, offset: 0x4ACED, size: 0x8, addend: 0x0, symName: __ZNSt3__110__str_findB8ue170006IcmNS_11char_traitsIcEELm18446744073709551615EEET0_PKT_S3_S6_S3_S3_, symObjAddr: 0xD1B0, symBinAddr: 0x10005407C, symSize: 0xF8 }
  - { offsetInCU: 0x9D53, offset: 0x4AD94, size: 0x8, addend: 0x0, symName: __ZNSt3__118__search_substringB8ue170006IcNS_11char_traitsIcEEEEPKT_S5_S5_S5_S5_, symObjAddr: 0xD2A8, symBinAddr: 0x100054174, symSize: 0x3F8 }
  - { offsetInCU: 0x9DF7, offset: 0x4AE38, size: 0x8, addend: 0x0, symName: __ZNSt3__119__str_find_first_ofB8ue170006IcmNS_11char_traitsIcEELm18446744073709551615EEET0_PKT_S3_S6_S3_S3_, symObjAddr: 0xD704, symBinAddr: 0x10005456C, symSize: 0x124 }
  - { offsetInCU: 0x9E9E, offset: 0x4AEDF, size: 0x8, addend: 0x0, symName: __ZNSt3__118__find_first_of_ceB8ue170006IPKcS2_RFbccEEET_S5_S5_T0_S6_OT1_, symObjAddr: 0xD828, symBinAddr: 0x100054690, symSize: 0x1C8 }
  - { offsetInCU: 0x9F3A, offset: 0x4AF7B, size: 0x8, addend: 0x0, symName: __ZNSt3__1eqB8ue170006IPKcEEbRKNS_11__wrap_iterIT_EES7_, symObjAddr: 0xDCB8, symBinAddr: 0x100054B20, symSize: 0x48 }
  - { offsetInCU: 0xA826, offset: 0x4B867, size: 0x8, addend: 0x0, symName: __Z7isalnumi, symObjAddr: 0x3930, symBinAddr: 0x100052840, symSize: 0x28 }
  - { offsetInCU: 0xC27C, offset: 0x4D2BD, size: 0x8, addend: 0x0, symName: __ZNK12ParseMessage7ft_trimERKNSt3__112basic_stringIcNS0_11char_traitsIcEENS0_9allocatorIcEEEE, symObjAddr: 0x0, symBinAddr: 0x10004F790, symSize: 0xC8 }
  - { offsetInCU: 0xC2D2, offset: 0x4D313, size: 0x8, addend: 0x0, symName: __Z8ft_splitNSt3__112basic_stringIcNS_11char_traitsIcEENS_9allocatorIcEEEEc, symObjAddr: 0x3F4, symBinAddr: 0x10004F858, symSize: 0x4EC }
  - { offsetInCU: 0xC347, offset: 0x4D388, size: 0x8, addend: 0x0, symName: __ZNKSt3__112basic_stringIcNS_11char_traitsIcEENS_9allocatorIcEEE6lengthB8ue170006Ev, symObjAddr: 0x938, symBinAddr: 0x10004FD44, symSize: 0x24 }
  - { offsetInCU: 0xC36C, offset: 0x4D3AD, size: 0x8, addend: 0x0, symName: __Z13remove_spacesRNSt3__112basic_stringIcNS_11char_traitsIcEENS_9allocatorIcEEEE, symObjAddr: 0xE14, symBinAddr: 0x10004FD68, symSize: 0x4E0 }
  - { offsetInCU: 0xC3D1, offset: 0x4D412, size: 0x8, addend: 0x0, symName: __ZN12ParseMessageC2ERKNSt3__112basic_stringIcNS0_11char_traitsIcEENS0_9allocatorIcEEEE, symObjAddr: 0x12F4, symBinAddr: 0x100050248, symSize: 0xD3C }
  - { offsetInCU: 0xC468, offset: 0x4D4A9, size: 0x8, addend: 0x0, symName: __ZNSt3__112basic_stringIcNS_11char_traitsIcEENS_9allocatorIcEEEaSB8ue170006EPKc, symObjAddr: 0x2030, symBinAddr: 0x100050F84, symSize: 0x2C }
  - { offsetInCU: 0xC591, offset: 0x4D5D2, size: 0x8, addend: 0x0, symName: __ZNSt3__119basic_istringstreamIcNS_11char_traitsIcEENS_9allocatorIcEEEC1B8ue170006ERKNS_12basic_stringIcS2_S4_EEj, symObjAddr: 0x20A0, symBinAddr: 0x100050FB0, symSize: 0x1E8 }
  - { offsetInCU: 0xC5D9, offset: 0x4D61A, size: 0x8, addend: 0x0, symName: __ZNKSt3__19basic_iosIcNS_11char_traitsIcEEEcvPvB8ue170006Ev, symObjAddr: 0x2C54, symBinAddr: 0x100051B64, symSize: 0x4C }
  - { offsetInCU: 0xC5FE, offset: 0x4D63F, size: 0x8, addend: 0x0, symName: __ZNKSt3__112basic_stringIcNS_11char_traitsIcEENS_9allocatorIcEEE4findB8ue170006ERKS5_m, symObjAddr: 0x2CA0, symBinAddr: 0x100051BB0, symSize: 0x78 }
  - { offsetInCU: 0xC645, offset: 0x4D686, size: 0x8, addend: 0x0, symName: __ZNK12ParseMessage7isValidERKNSt3__112basic_stringIcNS0_11char_traitsIcEENS0_9allocatorIcEEEE, symObjAddr: 0x2D18, symBinAddr: 0x100051C28, symSize: 0x250 }
  - { offsetInCU: 0xC6A3, offset: 0x4D6E4, size: 0x8, addend: 0x0, symName: __ZNSt3__119basic_istringstreamIcNS_11char_traitsIcEENS_9allocatorIcEEED1Ev, symObjAddr: 0x2F68, symBinAddr: 0x100051E78, symSize: 0x7C }
  - { offsetInCU: 0xC6D0, offset: 0x4D711, size: 0x8, addend: 0x0, symName: __ZN12ParseMessageC1ERKNSt3__112basic_stringIcNS0_11char_traitsIcEENS0_9allocatorIcEEEE, symObjAddr: 0x2FE4, symBinAddr: 0x100051EF4, symSize: 0x34 }
  - { offsetInCU: 0xC709, offset: 0x4D74A, size: 0x8, addend: 0x0, symName: __ZNKSt3__112basic_stringIcNS_11char_traitsIcEENS_9allocatorIcEEE13find_first_ofB8ue170006ERKS5_m, symObjAddr: 0x3018, symBinAddr: 0x100051F28, symSize: 0x78 }
  - { offsetInCU: 0xD755, offset: 0x4E796, size: 0x8, addend: 0x0, symName: __ZN6Server14isAlphanumericERKNSt3__112basic_stringIcNS0_11char_traitsIcEENS0_9allocatorIcEEEE, symObjAddr: 0x3090, symBinAddr: 0x100051FA0, symSize: 0x3A4 }
  - { offsetInCU: 0xD7AE, offset: 0x4E7EF, size: 0x8, addend: 0x0, symName: __ZNKSt3__112basic_stringIcNS_11char_traitsIcEENS_9allocatorIcEEE5beginB8ue170006Ev, symObjAddr: 0x3434, symBinAddr: 0x100052344, symSize: 0x26C }
  - { offsetInCU: 0xD7D5, offset: 0x4E816, size: 0x8, addend: 0x0, symName: __ZNKSt3__112basic_stringIcNS_11char_traitsIcEENS_9allocatorIcEEE3endB8ue170006Ev, symObjAddr: 0x36D4, symBinAddr: 0x1000525E4, symSize: 0x25C }
  - { offsetInCU: 0xD7FC, offset: 0x4E83D, size: 0x8, addend: 0x0, symName: __ZNKSt3__111__wrap_iterIPKcEdeB8ue170006Ev, symObjAddr: 0x3958, symBinAddr: 0x100052868, symSize: 0x60 }
  - { offsetInCU: 0xD822, offset: 0x4E863, size: 0x8, addend: 0x0, symName: __ZNSt3__111__wrap_iterIPKcEppB8ue170006Ev, symObjAddr: 0x39B8, symBinAddr: 0x1000528C8, symSize: 0x68 }
  - { offsetInCU: 0xD848, offset: 0x4E889, size: 0x8, addend: 0x0, symName: __ZNSt3__119basic_istringstreamIcNS_11char_traitsIcEENS_9allocatorIcEEED2Ev, symObjAddr: 0x3A20, symBinAddr: 0x100052930, symSize: 0x1DC }
  - { offsetInCU: 0xD882, offset: 0x4E8C3, size: 0x8, addend: 0x0, symName: __ZTv0_n24_NSt3__119basic_istringstreamIcNS_11char_traitsIcEENS_9allocatorIcEEED1Ev, symObjAddr: 0x3BFC, symBinAddr: 0x100052B0C, symSize: 0xB0 }
  - { offsetInCU: 0xD89E, offset: 0x4E8DF, size: 0x8, addend: 0x0, symName: __ZNSt3__115basic_stringbufIcNS_11char_traitsIcEENS_9allocatorIcEEED1Ev, symObjAddr: 0x3CAC, symBinAddr: 0x100052BBC, symSize: 0x2C }
  - { offsetInCU: 0xD8CB, offset: 0x4E90C, size: 0x8, addend: 0x0, symName: __ZNSt3__115basic_stringbufIcNS_11char_traitsIcEENS_9allocatorIcEEED2Ev, symObjAddr: 0x3CD8, symBinAddr: 0x100052BE8, symSize: 0xC4 }
  - { offsetInCU: 0xD8F7, offset: 0x4E938, size: 0x8, addend: 0x0, symName: __Z8__istypeim, symObjAddr: 0x3D9C, symBinAddr: 0x100052CAC, symSize: 0xFC }
  - { offsetInCU: 0xD931, offset: 0x4E972, size: 0x8, addend: 0x0, symName: __Z7isasciii, symObjAddr: 0x3E98, symBinAddr: 0x100052DA8, symSize: 0x24 }
  - { offsetInCU: 0xD981, offset: 0x4E9C2, size: 0x8, addend: 0x0, symName: __ZNSt3__19basic_iosIcNS_11char_traitsIcEEEC2B8ue170006Ev, symObjAddr: 0xBA4C, symBinAddr: 0x100052DCC, symSize: 0x84 }
  - { offsetInCU: 0xD9AB, offset: 0x4E9EC, size: 0x8, addend: 0x0, symName: __ZNSt3__113basic_istreamIcNS_11char_traitsIcEEEC2B8ue170006EPNS_15basic_streambufIcS2_EE, symObjAddr: 0xBAD0, symBinAddr: 0x100052E50, symSize: 0x20C }
  - { offsetInCU: 0xD9F0, offset: 0x4EA31, size: 0x8, addend: 0x0, symName: __ZNSt3__115basic_stringbufIcNS_11char_traitsIcEENS_9allocatorIcEEEC1B8ue170006ERKNS_12basic_stringIcS2_S4_EEj, symObjAddr: 0xBCDC, symBinAddr: 0x10005305C, symSize: 0x3C }
  - { offsetInCU: 0xDA38, offset: 0x4EA79, size: 0x8, addend: 0x0, symName: __ZNSt3__18ios_baseC2B8ue170006Ev, symObjAddr: 0xBD18, symBinAddr: 0x100053098, symSize: 0x74 }
  - { offsetInCU: 0xDA61, offset: 0x4EAA2, size: 0x8, addend: 0x0, symName: __ZNSt3__19basic_iosIcNS_11char_traitsIcEEE4initB8ue170006EPNS_15basic_streambufIcS2_EE, symObjAddr: 0xBD8C, symBinAddr: 0x10005310C, symSize: 0xEC }
  - { offsetInCU: 0xDA99, offset: 0x4EADA, size: 0x8, addend: 0x0, symName: __ZNSt3__115basic_stringbufIcNS_11char_traitsIcEENS_9allocatorIcEEEC2B8ue170006ERKNS_12basic_stringIcS2_S4_EEj, symObjAddr: 0xBE80, symBinAddr: 0x1000531F8, symSize: 0x3D8 }
  - { offsetInCU: 0xDAE4, offset: 0x4EB25, size: 0x8, addend: 0x0, symName: __ZNSt3__112basic_stringIcNS_11char_traitsIcEENS_9allocatorIcEEEC1B8ue170006ERKS4_, symObjAddr: 0xC27C, symBinAddr: 0x1000535D0, symSize: 0x34 }
  - { offsetInCU: 0xDB1D, offset: 0x4EB5E, size: 0x8, addend: 0x0, symName: __ZNSt3__112basic_stringIcNS_11char_traitsIcEENS_9allocatorIcEEEC2B8ue170006ERKS4_, symObjAddr: 0xC30C, symBinAddr: 0x100053604, symSize: 0x1E8 }
  - { offsetInCU: 0xDB76, offset: 0x4EBB7, size: 0x8, addend: 0x0, symName: __ZNKSt3__113basic_istreamIcNS_11char_traitsIcEEE6sentrycvbB8ue170006Ev, symObjAddr: 0xC588, symBinAddr: 0x1000537EC, symSize: 0x88 }
  - { offsetInCU: 0xDB9C, offset: 0x4EBDD, size: 0x8, addend: 0x0, symName: __ZNSt3__115basic_streambufIcNS_11char_traitsIcEEE5sgetcB8ue170006Ev, symObjAddr: 0xC780, symBinAddr: 0x100053874, symSize: 0x1E4 }
  - { offsetInCU: 0xDBC2, offset: 0x4EC03, size: 0x8, addend: 0x0, symName: __ZNSt3__111char_traitsIcE12to_char_typeB8ue170006Ei, symObjAddr: 0xC98C, symBinAddr: 0x100053A58, symSize: 0x18 }
  - { offsetInCU: 0xDBEA, offset: 0x4EC2B, size: 0x8, addend: 0x0, symName: __ZNKSt3__15ctypeIcE2isB8ue170006Ejc, symObjAddr: 0xC9A4, symBinAddr: 0x100053A70, symSize: 0x120 }
  - { offsetInCU: 0xDC2E, offset: 0x4EC6F, size: 0x8, addend: 0x0, symName: __ZNSt3__115basic_streambufIcNS_11char_traitsIcEEE6sbumpcB8ue170006Ev, symObjAddr: 0xCAC4, symBinAddr: 0x100053B90, symSize: 0x1EC }
  - { offsetInCU: 0xDC54, offset: 0x4EC95, size: 0x8, addend: 0x0, symName: __ZNSt3__18ios_base18__setstate_nothrowB8ue170006Ej, symObjAddr: 0xCD68, symBinAddr: 0x100053D7C, symSize: 0x178 }
  - { offsetInCU: 0xDC89, offset: 0x4ECCA, size: 0x8, addend: 0x0, symName: __ZNKSt3__19basic_iosIcNS_11char_traitsIcEEE10exceptionsB8ue170006Ev, symObjAddr: 0xCEE0, symBinAddr: 0x100053EF4, symSize: 0x24 }
  - { offsetInCU: 0xDCAF, offset: 0x4ECF0, size: 0x8, addend: 0x0, symName: __ZNSt3__111char_traitsIcE11to_int_typeB8ue170006Ec, symObjAddr: 0xCFB0, symBinAddr: 0x100053F18, symSize: 0x14 }
  - { offsetInCU: 0xDCD2, offset: 0x4ED13, size: 0x8, addend: 0x0, symName: __ZNKSt3__18ios_base10exceptionsB8ue170006Ev, symObjAddr: 0xCFC4, symBinAddr: 0x100053F2C, symSize: 0x8C }
  - { offsetInCU: 0xDCFB, offset: 0x4ED3C, size: 0x8, addend: 0x0, symName: __ZNKSt3__19basic_iosIcNS_11char_traitsIcEEE4failB8ue170006Ev, symObjAddr: 0xD0EC, symBinAddr: 0x100053FB8, symSize: 0x28 }
  - { offsetInCU: 0xDD20, offset: 0x4ED61, size: 0x8, addend: 0x0, symName: __ZNKSt3__18ios_base4failB8ue170006Ev, symObjAddr: 0xD114, symBinAddr: 0x100053FE0, symSize: 0x9C }
  - { offsetInCU: 0xDD49, offset: 0x4ED8A, size: 0x8, addend: 0x0, symName: __ZNSt3__111char_traitsIcE2eqEcc, symObjAddr: 0xD9F0, symBinAddr: 0x100054858, symSize: 0x28 }
  - { offsetInCU: 0xDD7A, offset: 0x4EDBB, size: 0x8, addend: 0x0, symName: __ZNKSt3__112basic_stringIcNS_11char_traitsIcEENS_9allocatorIcEEE21__make_const_iteratorB8ue170006EPKc, symObjAddr: 0xDA18, symBinAddr: 0x100054880, symSize: 0x1FC }
  - { offsetInCU: 0xDDB1, offset: 0x4EDF2, size: 0x8, addend: 0x0, symName: __ZNSt3__111__wrap_iterIPKcEC1B8ue170006ES2_, symObjAddr: 0xDC14, symBinAddr: 0x100054A7C, symSize: 0x34 }
  - { offsetInCU: 0xDDE9, offset: 0x4EE2A, size: 0x8, addend: 0x0, symName: __ZNSt3__111__wrap_iterIPKcEC2B8ue170006ES2_, symObjAddr: 0xDC48, symBinAddr: 0x100054AB0, symSize: 0x70 }
  - { offsetInCU: 0xDE21, offset: 0x4EE62, size: 0x8, addend: 0x0, symName: __ZNKSt3__111__wrap_iterIPKcE4baseB8ue170006Ev, symObjAddr: 0xDD00, symBinAddr: 0x100054B68, symSize: 0x60 }
  - { offsetInCU: 0x3B, offset: 0x4EF2E, size: 0x8, addend: 0x0, symName: _.str, symObjAddr: 0x10900, symBinAddr: 0x10008A800, symSize: 0x0 }
  - { offsetInCU: 0x6B, offset: 0x4EF5E, size: 0x8, addend: 0x0, symName: _.str.1, symObjAddr: 0x10920, symBinAddr: 0x10008A820, symSize: 0x0 }
  - { offsetInCU: 0x88, offset: 0x4EF7B, size: 0x8, addend: 0x0, symName: _.str.2, symObjAddr: 0x10940, symBinAddr: 0x10008A840, symSize: 0x0 }
  - { offsetInCU: 0xA5, offset: 0x4EF98, size: 0x8, addend: 0x0, symName: _.str.3, symObjAddr: 0x10980, symBinAddr: 0x10008A880, symSize: 0x0 }
  - { offsetInCU: 0xC2, offset: 0x4EFB5, size: 0x8, addend: 0x0, symName: _.str.4, symObjAddr: 0x109A0, symBinAddr: 0x10008A8A0, symSize: 0x0 }
  - { offsetInCU: 0xD3, offset: 0x4EFC6, size: 0x8, addend: 0x0, symName: _.str.5, symObjAddr: 0x109C0, symBinAddr: 0x10008A8C0, symSize: 0x0 }
  - { offsetInCU: 0xF0, offset: 0x4EFE3, size: 0x8, addend: 0x0, symName: _.str.6, symObjAddr: 0x109E0, symBinAddr: 0x10008A8E0, symSize: 0x0 }
  - { offsetInCU: 0x10D, offset: 0x4F000, size: 0x8, addend: 0x0, symName: _.str.7, symObjAddr: 0x10A20, symBinAddr: 0x10008A920, symSize: 0x0 }
  - { offsetInCU: 0x11E, offset: 0x4F011, size: 0x8, addend: 0x0, symName: _.str.8, symObjAddr: 0x10A40, symBinAddr: 0x10008A940, symSize: 0x0 }
  - { offsetInCU: 0x13B, offset: 0x4F02E, size: 0x8, addend: 0x0, symName: _.str.9, symObjAddr: 0x10A80, symBinAddr: 0x10008A980, symSize: 0x0 }
  - { offsetInCU: 0x14C, offset: 0x4F03F, size: 0x8, addend: 0x0, symName: _.str.10, symObjAddr: 0x10AA0, symBinAddr: 0x10008A9A0, symSize: 0x0 }
  - { offsetInCU: 0x15D, offset: 0x4F050, size: 0x8, addend: 0x0, symName: _.str.11, symObjAddr: 0x10AC0, symBinAddr: 0x10008A9C0, symSize: 0x0 }
  - { offsetInCU: 0x17A, offset: 0x4F06D, size: 0x8, addend: 0x0, symName: _.str.12, symObjAddr: 0x10B00, symBinAddr: 0x10008AA00, symSize: 0x0 }
  - { offsetInCU: 0x198, offset: 0x4F08B, size: 0x8, addend: 0x0, symName: _.str.13, symObjAddr: 0x10B20, symBinAddr: 0x10008AA20, symSize: 0x0 }
  - { offsetInCU: 0x1B6, offset: 0x4F0A9, size: 0x8, addend: 0x0, symName: _.str.14, symObjAddr: 0x10B40, symBinAddr: 0x10008AA40, symSize: 0x0 }
  - { offsetInCU: 0x84BF, offset: 0x573B2, size: 0x8, addend: 0x0, symName: __ZNSt3__16removeB8ue170006INS_11__wrap_iterIPNS_12basic_stringIcNS_11char_traitsIcEENS_9allocatorIcEEEEEES7_EET_SA_SA_RKT0_, symObjAddr: 0x2EA8, symBinAddr: 0x100056A54, symSize: 0x510 }
  - { offsetInCU: 0x853B, offset: 0x5742E, size: 0x8, addend: 0x0, symName: __ZNSt3__1miB8ue170006IPKNS_12basic_stringIcNS_11char_traitsIcEENS_9allocatorIcEEEEPS6_EENS_11__wrap_iterIT_E15difference_typeERKSC_RKNSA_IT0_EE, symObjAddr: 0xE0A4, symBinAddr: 0x100057758, symSize: 0x48 }
  - { offsetInCU: 0x8587, offset: 0x5747A, size: 0x8, addend: 0x0, symName: __ZNSt3__1neB8ue170006IPKNS_12basic_stringIcNS_11char_traitsIcEENS_9allocatorIcEEEEEEbRKNS_11__wrap_iterIT_EESD_, symObjAddr: 0xE0EC, symBinAddr: 0x1000577A0, symSize: 0x34 }
  - { offsetInCU: 0x85CA, offset: 0x574BD, size: 0x8, addend: 0x0, symName: __ZNSt3__14moveB8ue170006IPNS_12basic_stringIcNS_11char_traitsIcEENS_9allocatorIcEEEES7_EET0_T_S9_S8_, symObjAddr: 0xE16C, symBinAddr: 0x100057820, symSize: 0x254 }
  - { offsetInCU: 0x8627, offset: 0x5751A, size: 0x8, addend: 0x0, symName: __ZNSt3__1miB8ue170006IPKNS_12basic_stringIcNS_11char_traitsIcEENS_9allocatorIcEEEES8_EENS_11__wrap_iterIT_E15difference_typeERKSB_RKNS9_IT0_EE, symObjAddr: 0xE3C0, symBinAddr: 0x100057A74, symSize: 0x48 }
  - { offsetInCU: 0x8673, offset: 0x57566, size: 0x8, addend: 0x0, symName: __ZNSt3__1eqB8ue170006IPKNS_12basic_stringIcNS_11char_traitsIcEENS_9allocatorIcEEEEEEbRKNS_11__wrap_iterIT_EESD_, symObjAddr: 0xE468, symBinAddr: 0x100057B1C, symSize: 0x48 }
  - { offsetInCU: 0x86B6, offset: 0x575A9, size: 0x8, addend: 0x0, symName: __ZNSt3__16__moveB8ue170006INS_17_ClassicAlgPolicyEPNS_12basic_stringIcNS_11char_traitsIcEENS_9allocatorIcEEEES8_S8_EENS_4pairIT0_T2_EESA_T1_SB_, symObjAddr: 0xE5D8, symBinAddr: 0x100057B64, symSize: 0x22C }
  - { offsetInCU: 0x8725, offset: 0x57618, size: 0x8, addend: 0x0, symName: __ZNSt3__123__dispatch_copy_or_moveB8ue170006INS_17_ClassicAlgPolicyENS_11__move_loopIS1_EENS_14__move_trivialEPNS_12basic_stringIcNS_11char_traitsIcEENS_9allocatorIcEEEESB_SB_EENS_4pairIT2_T4_EESD_T3_SE_, symObjAddr: 0xE804, symBinAddr: 0x100057D90, symSize: 0x22C }
  - { offsetInCU: 0x87A6, offset: 0x57699, size: 0x8, addend: 0x0, symName: __ZNSt3__121__unwrap_and_dispatchB8ue170006INS_10__overloadINS_11__move_loopINS_17_ClassicAlgPolicyEEENS_14__move_trivialEEEPNS_12basic_stringIcNS_11char_traitsIcEENS_9allocatorIcEEEESD_SD_Li0EEENS_4pairIT0_T2_EESF_T1_SG_, symObjAddr: 0xEA30, symBinAddr: 0x100057FBC, symSize: 0x5A4 }
  - { offsetInCU: 0x883F, offset: 0x57732, size: 0x8, addend: 0x0, symName: __ZNSt3__114__unwrap_rangeB8ue170006IPNS_12basic_stringIcNS_11char_traitsIcEENS_9allocatorIcEEEES7_EENS_4pairIT0_S9_EET_SB_, symObjAddr: 0xEFD4, symBinAddr: 0x100058560, symSize: 0x350 }
  - { offsetInCU: 0x898C, offset: 0x5787F, size: 0x8, addend: 0x0, symName: __ZNSt3__113__unwrap_iterB8ue170006IPNS_12basic_stringIcNS_11char_traitsIcEENS_9allocatorIcEEEENS_18__unwrap_iter_implIS7_Lb1EEELi0EEEDTclsrT0_8__unwrapclsr3stdE7declvalIT_EEEESB_, symObjAddr: 0xF74C, symBinAddr: 0x100058CD8, symSize: 0x24 }
  - { offsetInCU: 0x89D0, offset: 0x578C3, size: 0x8, addend: 0x0, symName: __ZNSt3__19make_pairB8ue170006IPNS_12basic_stringIcNS_11char_traitsIcEENS_9allocatorIcEEEES7_EENS_4pairINS_18__unwrap_ref_decayIT_E4typeENS9_IT0_E4typeEEEOSA_OSD_, symObjAddr: 0xF770, symBinAddr: 0x100058CFC, symSize: 0x20C }
  - { offsetInCU: 0x8A21, offset: 0x57914, size: 0x8, addend: 0x0, symName: __ZNSt3__114__rewrap_rangeB8ue170006IPNS_12basic_stringIcNS_11char_traitsIcEENS_9allocatorIcEEEES7_EET_S8_T0_, symObjAddr: 0xF97C, symBinAddr: 0x100058F08, symSize: 0x2C }
  - { offsetInCU: 0x8A6D, offset: 0x57960, size: 0x8, addend: 0x0, symName: __ZNSt3__113__rewrap_iterB8ue170006IPNS_12basic_stringIcNS_11char_traitsIcEENS_9allocatorIcEEEES7_NS_18__unwrap_iter_implIS7_Lb1EEEEET_SA_T0_, symObjAddr: 0xF9A8, symBinAddr: 0x100058F34, symSize: 0x5C }
  - { offsetInCU: 0xBD7B, offset: 0x5AC6E, size: 0x8, addend: 0x0, symName: __ZN6Server11nickCommandEP6ClientRKNSt3__16vectorINS2_12basic_stringIcNS2_11char_traitsIcEENS2_9allocatorIcEEEENS7_IS9_EEEE, symObjAddr: 0x0, symBinAddr: 0x100054C60, symSize: 0x16EC }
  - { offsetInCU: 0xBDD5, offset: 0x5ACC8, size: 0x8, addend: 0x0, symName: __ZNSt3__16vectorINS_12basic_stringIcNS_11char_traitsIcEENS_9allocatorIcEEEENS4_IS6_EEE9push_backB8ue170006EOS6_, symObjAddr: 0x179C, symBinAddr: 0x10005634C, symSize: 0xE0 }
  - { offsetInCU: 0xBE11, offset: 0x5AD04, size: 0x8, addend: 0x0, symName: __ZNKSt3__16vectorINS_12basic_stringIcNS_11char_traitsIcEENS_9allocatorIcEEEENS4_IS6_EEEixB8ue170006Em, symObjAddr: 0x1BA4, symBinAddr: 0x10005642C, symSize: 0x74 }
  - { offsetInCU: 0xBE48, offset: 0x5AD3B, size: 0x8, addend: 0x0, symName: __ZNKSt3__112basic_stringIcNS_11char_traitsIcEENS_9allocatorIcEEE13find_first_ofB8ue170006EPKcm, symObjAddr: 0x1C18, symBinAddr: 0x1000564A0, symSize: 0x74 }
  - { offsetInCU: 0xBE8E, offset: 0x5AD81, size: 0x8, addend: 0x0, symName: __ZNKSt3__16vectorINS_12basic_stringIcNS_11char_traitsIcEENS_9allocatorIcEEEENS4_IS6_EEE5emptyB8ue170006Ev, symObjAddr: 0x1F84, symBinAddr: 0x100056514, symSize: 0xB0 }
  - { offsetInCU: 0xBEB4, offset: 0x5ADA7, size: 0x8, addend: 0x0, symName: __ZNSt3__16vectorINS_12basic_stringIcNS_11char_traitsIcEENS_9allocatorIcEEEENS4_IS6_EEE5eraseENS_11__wrap_iterIPKS6_EESC_, symObjAddr: 0x2A18, symBinAddr: 0x1000565C4, symSize: 0x490 }
  - { offsetInCU: 0xBF1E, offset: 0x5AE11, size: 0x8, addend: 0x0, symName: __ZNSt3__111__wrap_iterIPKNS_12basic_stringIcNS_11char_traitsIcEENS_9allocatorIcEEEEEC1B8ue170006IPS6_EERKNS0_IT_EEPNS_9enable_ifIXsr14is_convertibleISC_S8_EE5valueEvE4typeE, symObjAddr: 0x33B8, symBinAddr: 0x100056F64, symSize: 0x3C }
  - { offsetInCU: 0xBF6F, offset: 0x5AE62, size: 0x8, addend: 0x0, symName: __ZNSt3__16vectorINS_12basic_stringIcNS_11char_traitsIcEENS_9allocatorIcEEEENS4_IS6_EEE22__construct_one_at_endB8ue170006IJS6_EEEvDpOT_, symObjAddr: 0x6FF4, symBinAddr: 0x100056FA0, symSize: 0x380 }
  - { offsetInCU: 0xBFC4, offset: 0x5AEB7, size: 0x8, addend: 0x0, symName: __ZNSt3__16vectorINS_12basic_stringIcNS_11char_traitsIcEENS_9allocatorIcEEEENS4_IS6_EEE21__push_back_slow_pathIS6_EEvOT_, symObjAddr: 0x7374, symBinAddr: 0x100057320, symSize: 0x3D4 }
  - { offsetInCU: 0xC043, offset: 0x5AF36, size: 0x8, addend: 0x0, symName: __ZNSt3__116allocator_traitsINS_9allocatorINS_12basic_stringIcNS_11char_traitsIcEENS1_IcEEEEEEE9constructB8ue170006IS6_JS6_EvEEvRS7_PT_DpOT0_, symObjAddr: 0x77BC, symBinAddr: 0x1000576F4, symSize: 0x34 }
  - { offsetInCU: 0xC099, offset: 0x5AF8C, size: 0x8, addend: 0x0, symName: __ZNSt3__19allocatorINS_12basic_stringIcNS_11char_traitsIcEENS0_IcEEEEE9constructB8ue170006IS5_JS5_EEEvPT_DpOT0_, symObjAddr: 0x7D20, symBinAddr: 0x100057728, symSize: 0x30 }
  - { offsetInCU: 0xC0F9, offset: 0x5AFEC, size: 0x8, addend: 0x0, symName: __ZNSt3__16vectorINS_12basic_stringIcNS_11char_traitsIcEENS_9allocatorIcEEEENS4_IS6_EEE17__destruct_at_endB8ue170006EPS6_, symObjAddr: 0xE120, symBinAddr: 0x1000577D4, symSize: 0x4C }
  - { offsetInCU: 0xC13D, offset: 0x5B030, size: 0x8, addend: 0x0, symName: __ZNKSt3__111__wrap_iterIPKNS_12basic_stringIcNS_11char_traitsIcEENS_9allocatorIcEEEEE4baseB8ue170006Ev, symObjAddr: 0xE408, symBinAddr: 0x100057ABC, symSize: 0x60 }
  - { offsetInCU: 0xC187, offset: 0x5B07A, size: 0x8, addend: 0x0, symName: __ZNKSt3__111__move_loopINS_17_ClassicAlgPolicyEEclB8ue170006IPNS_12basic_stringIcNS_11char_traitsIcEENS_9allocatorIcEEEESA_SA_EENS_4pairIT_T1_EESC_T0_SD_, symObjAddr: 0xF324, symBinAddr: 0x1000588B0, symSize: 0x428 }
  - { offsetInCU: 0xC202, offset: 0x5B0F5, size: 0x8, addend: 0x0, symName: __ZNSt3__18_IterOpsINS_17_ClassicAlgPolicyEE11__iter_moveB8ue170006IRPNS_12basic_stringIcNS_11char_traitsIcEENS_9allocatorIcEEEEEENS_9enable_ifIXsr12is_referenceIDTdeclsr3stdE7declvalIRT_EEEEE5valueEDTclsr3stdE4movedeclsr3stdE7declvalISE_EEEEE4typeEOSD_, symObjAddr: 0xFA04, symBinAddr: 0x100058F90, symSize: 0x6C }
  - { offsetInCU: 0xC22E, offset: 0x5B121, size: 0x8, addend: 0x0, symName: __ZNSt3__18_IterOpsINS_17_ClassicAlgPolicyEE25__validate_iter_referenceB8ue170006IRPNS_12basic_stringIcNS_11char_traitsIcEENS_9allocatorIcEEEEEEvv, symObjAddr: 0xFA70, symBinAddr: 0x100058FFC, symSize: 0x4 }
  - { offsetInCU: 0xC24C, offset: 0x5B13F, size: 0x8, addend: 0x0, symName: __ZNSt3__118__unwrap_iter_implIPNS_12basic_stringIcNS_11char_traitsIcEENS_9allocatorIcEEEELb1EE8__unwrapB8ue170006ES7_, symObjAddr: 0xFA74, symBinAddr: 0x100059000, symSize: 0x24 }
  - { offsetInCU: 0xC26F, offset: 0x5B162, size: 0x8, addend: 0x0, symName: __ZNSt3__14pairIPNS_12basic_stringIcNS_11char_traitsIcEENS_9allocatorIcEEEES7_EC1B8ue170006ERKS7_SA_, symObjAddr: 0xFA98, symBinAddr: 0x100059024, symSize: 0x3C }
  - { offsetInCU: 0xC2B5, offset: 0x5B1A8, size: 0x8, addend: 0x0, symName: __ZNSt3__14pairIPNS_12basic_stringIcNS_11char_traitsIcEENS_9allocatorIcEEEES7_EC2B8ue170006ERKS7_SA_, symObjAddr: 0xFAD4, symBinAddr: 0x100059060, symSize: 0x138 }
  - { offsetInCU: 0xC2FB, offset: 0x5B1EE, size: 0x8, addend: 0x0, symName: __ZNSt3__118__unwrap_iter_implIPNS_12basic_stringIcNS_11char_traitsIcEENS_9allocatorIcEEEELb1EE8__rewrapB8ue170006ES7_S7_, symObjAddr: 0xFC0C, symBinAddr: 0x100059198, symSize: 0x58 }
  - { offsetInCU: 0xC32C, offset: 0x5B21F, size: 0x8, addend: 0x0, symName: __ZNSt3__111__wrap_iterIPKNS_12basic_stringIcNS_11char_traitsIcEENS_9allocatorIcEEEEEC2B8ue170006IPS6_EERKNS0_IT_EEPNS_9enable_ifIXsr14is_convertibleISC_S8_EE5valueEvE4typeE, symObjAddr: 0xFC64, symBinAddr: 0x1000591F0, symSize: 0x84 }
  - { offsetInCU: 0x3B, offset: 0x5B2D3, size: 0x8, addend: 0x0, symName: _.str, symObjAddr: 0x6B40, symBinAddr: 0x10008AA60, symSize: 0x0 }
  - { offsetInCU: 0x6B, offset: 0x5B303, size: 0x8, addend: 0x0, symName: _.str.1, symObjAddr: 0x6B60, symBinAddr: 0x10008AA80, symSize: 0x0 }
  - { offsetInCU: 0x88, offset: 0x5B320, size: 0x8, addend: 0x0, symName: _.str.2, symObjAddr: 0x6B80, symBinAddr: 0x10008AAA0, symSize: 0x0 }
  - { offsetInCU: 0x99, offset: 0x5B331, size: 0x8, addend: 0x0, symName: _.str.3, symObjAddr: 0x6BA0, symBinAddr: 0x10008AAC0, symSize: 0x0 }
  - { offsetInCU: 0xB6, offset: 0x5B34E, size: 0x8, addend: 0x0, symName: _.str.4, symObjAddr: 0x6BC0, symBinAddr: 0x10008AAE0, symSize: 0x0 }
  - { offsetInCU: 0xD3, offset: 0x5B36B, size: 0x8, addend: 0x0, symName: _.str.5, symObjAddr: 0x6BE0, symBinAddr: 0x10008AB00, symSize: 0x0 }
  - { offsetInCU: 0xF1, offset: 0x5B389, size: 0x8, addend: 0x0, symName: _.str.6, symObjAddr: 0x6C00, symBinAddr: 0x10008AB20, symSize: 0x0 }
  - { offsetInCU: 0xAE9D, offset: 0x66135, size: 0x8, addend: 0x0, symName: __ZN6Server11quitCommandENSt3__112basic_stringIcNS0_11char_traitsIcEENS0_9allocatorIcEEEEP6Client, symObjAddr: 0x0, symBinAddr: 0x10005930C, symSize: 0xF08 }
  - { offsetInCU: 0xAF1C, offset: 0x661B4, size: 0x8, addend: 0x0, symName: __ZNSt3__114__map_iteratorINS_15__tree_iteratorINS_12__value_typeINS_12basic_stringIcNS_11char_traitsIcEENS_9allocatorIcEEEE7ChannelEEPNS_11__tree_nodeISA_PvEElEEEC1B8ue170006Ev, symObjAddr: 0xF08, symBinAddr: 0x10005A214, symSize: 0x2C }
  - { offsetInCU: 0xAF4B, offset: 0x661E3, size: 0x8, addend: 0x0, symName: __ZNSt3__13mapINS_12basic_stringIcNS_11char_traitsIcEENS_9allocatorIcEEEE7ChannelNS_4lessIS6_EENS4_INS_4pairIKS6_S7_EEEEE5beginB8ue170006Ev, symObjAddr: 0xF68, symBinAddr: 0x10005A240, symSize: 0x2B4 }
  - { offsetInCU: 0xAF72, offset: 0x6620A, size: 0x8, addend: 0x0, symName: __ZNSt3__114__map_iteratorINS_15__tree_iteratorINS_12__value_typeINS_12basic_stringIcNS_11char_traitsIcEENS_9allocatorIcEEEE7ChannelEEPNS_11__tree_nodeISA_PvEElEEEppB8ue170006Ei, symObjAddr: 0x1B48, symBinAddr: 0x10005A4F4, symSize: 0x20C }
  - { offsetInCU: 0xAFB8, offset: 0x66250, size: 0x8, addend: 0x0, symName: __ZNSt9exceptionC1B8ue170006Ev, symObjAddr: 0x1D54, symBinAddr: 0x10005A700, symSize: 0x2C }
  - { offsetInCU: 0xAFE2, offset: 0x6627A, size: 0x8, addend: 0x0, symName: __ZNSt3__114__map_iteratorINS_15__tree_iteratorINS_12__value_typeINS_12basic_stringIcNS_11char_traitsIcEENS_9allocatorIcEEEE7ChannelEEPNS_11__tree_nodeISA_PvEElEEEC2B8ue170006Ev, symObjAddr: 0x1DF4, symBinAddr: 0x10005A72C, symSize: 0x2C }
  - { offsetInCU: 0xB00C, offset: 0x662A4, size: 0x8, addend: 0x0, symName: __ZNSt3__115__tree_iteratorINS_12__value_typeINS_12basic_stringIcNS_11char_traitsIcEENS_9allocatorIcEEEE7ChannelEEPNS_11__tree_nodeIS9_PvEElEC1B8ue170006Ev, symObjAddr: 0x1E20, symBinAddr: 0x10005A758, symSize: 0x2C }
  - { offsetInCU: 0xB036, offset: 0x662CE, size: 0x8, addend: 0x0, symName: __ZNSt3__115__tree_iteratorINS_12__value_typeINS_12basic_stringIcNS_11char_traitsIcEENS_9allocatorIcEEEE7ChannelEEPNS_11__tree_nodeIS9_PvEElEC2B8ue170006Ev, symObjAddr: 0x1E4C, symBinAddr: 0x10005A784, symSize: 0x14 }
  - { offsetInCU: 0xB060, offset: 0x662F8, size: 0x8, addend: 0x0, symName: __ZNSt3__16__treeINS_12__value_typeINS_12basic_stringIcNS_11char_traitsIcEENS_9allocatorIcEEEE7ChannelEENS_19__map_value_compareIS7_S9_NS_4lessIS7_EELb1EEENS5_IS9_EEE5beginB8ue170006Ev, symObjAddr: 0x21E0, symBinAddr: 0x10005A798, symSize: 0x238 }
  - { offsetInCU: 0xB087, offset: 0x6631F, size: 0x8, addend: 0x0, symName: __ZNSt3__114__map_iteratorINS_15__tree_iteratorINS_12__value_typeINS_12basic_stringIcNS_11char_traitsIcEENS_9allocatorIcEEEE7ChannelEEPNS_11__tree_nodeISA_PvEElEEEppB8ue170006Ev, symObjAddr: 0x2C74, symBinAddr: 0x10005A9D0, symSize: 0x2C }
  - { offsetInCU: 0xB0AD, offset: 0x66345, size: 0x8, addend: 0x0, symName: __ZNSt3__115__tree_iteratorINS_12__value_typeINS_12basic_stringIcNS_11char_traitsIcEENS_9allocatorIcEEEE7ChannelEEPNS_11__tree_nodeIS9_PvEElEppB8ue170006Ev, symObjAddr: 0x2CA0, symBinAddr: 0x10005A9FC, symSize: 0xA8 }
  - { offsetInCU: 0x3B, offset: 0x663BF, size: 0x8, addend: 0x0, symName: _.str, symObjAddr: 0x25BC0, symBinAddr: 0x10008D260, symSize: 0x0 }
  - { offsetInCU: 0x6B, offset: 0x663EF, size: 0x8, addend: 0x0, symName: _.str.1, symObjAddr: 0x25C00, symBinAddr: 0x10008AB40, symSize: 0x0 }
  - { offsetInCU: 0x88, offset: 0x6640C, size: 0x8, addend: 0x0, symName: _.str.2, symObjAddr: 0x25C20, symBinAddr: 0x10008AB60, symSize: 0x0 }
  - { offsetInCU: 0xA5, offset: 0x66429, size: 0x8, addend: 0x0, symName: _.str.3, symObjAddr: 0x25C40, symBinAddr: 0x10008AB80, symSize: 0x0 }
  - { offsetInCU: 0xC2, offset: 0x66446, size: 0x8, addend: 0x0, symName: _.str.4, symObjAddr: 0x25C60, symBinAddr: 0x10008ABA0, symSize: 0x0 }
  - { offsetInCU: 0xDF, offset: 0x66463, size: 0x8, addend: 0x0, symName: _.str.5, symObjAddr: 0x25CA0, symBinAddr: 0x10008ABE0, symSize: 0x0 }
  - { offsetInCU: 0xF0, offset: 0x66474, size: 0x8, addend: 0x0, symName: _.str.6, symObjAddr: 0x25CC0, symBinAddr: 0x10008AC00, symSize: 0x0 }
  - { offsetInCU: 0x10D, offset: 0x66491, size: 0x8, addend: 0x0, symName: _.str.7, symObjAddr: 0x25D00, symBinAddr: 0x10008AC40, symSize: 0x0 }
  - { offsetInCU: 0x11E, offset: 0x664A2, size: 0x8, addend: 0x0, symName: _.str.8, symObjAddr: 0x25D20, symBinAddr: 0x10008AC60, symSize: 0x0 }
  - { offsetInCU: 0x13B, offset: 0x664BF, size: 0x8, addend: 0x0, symName: _.str.9, symObjAddr: 0x25D60, symBinAddr: 0x10008ACA0, symSize: 0x0 }
  - { offsetInCU: 0x14C, offset: 0x664D0, size: 0x8, addend: 0x0, symName: _.str.10, symObjAddr: 0x25D80, symBinAddr: 0x10008ACC0, symSize: 0x0 }
  - { offsetInCU: 0x15D, offset: 0x664E1, size: 0x8, addend: 0x0, symName: _.str.11, symObjAddr: 0x25DC0, symBinAddr: 0x10008AD00, symSize: 0x0 }
  - { offsetInCU: 0x16E, offset: 0x664F2, size: 0x8, addend: 0x0, symName: _.str.12, symObjAddr: 0x25DE0, symBinAddr: 0x10008AD20, symSize: 0x0 }
  - { offsetInCU: 0x17F, offset: 0x66503, size: 0x8, addend: 0x0, symName: _.str.13, symObjAddr: 0x25E20, symBinAddr: 0x10008AD60, symSize: 0x0 }
  - { offsetInCU: 0x190, offset: 0x66514, size: 0x8, addend: 0x0, symName: _.str.14, symObjAddr: 0x25E40, symBinAddr: 0x10008AD80, symSize: 0x0 }
  - { offsetInCU: 0x1A1, offset: 0x66525, size: 0x8, addend: 0x0, symName: _.str.15, symObjAddr: 0x25E60, symBinAddr: 0x10008ADA0, symSize: 0x0 }
  - { offsetInCU: 0x1BE, offset: 0x66542, size: 0x8, addend: 0x0, symName: _.str.16, symObjAddr: 0x25E80, symBinAddr: 0x10008ADC0, symSize: 0x0 }
  - { offsetInCU: 0x1DB, offset: 0x6655F, size: 0x8, addend: 0x0, symName: _.str.17, symObjAddr: 0x25EA0, symBinAddr: 0x10008ADE0, symSize: 0x0 }
  - { offsetInCU: 0x1F9, offset: 0x6657D, size: 0x8, addend: 0x0, symName: _.str.18, symObjAddr: 0x25EC0, symBinAddr: 0x10008AE00, symSize: 0x0 }
  - { offsetInCU: 0x217, offset: 0x6659B, size: 0x8, addend: 0x0, symName: _.str.19, symObjAddr: 0x25EE0, symBinAddr: 0x10008AE20, symSize: 0x0 }
  - { offsetInCU: 0xA1A3, offset: 0x70527, size: 0x8, addend: 0x0, symName: __ZNSt3__19make_pairB8ue170006IRNS_12basic_stringIcNS_11char_traitsIcEENS_9allocatorIcEEEE7ChannelEENS_4pairINS_18__unwrap_ref_decayIT_E4typeENSA_IT0_E4typeEEEOSB_OSE_, symObjAddr: 0x4524, symBinAddr: 0x10005DB8C, symSize: 0x40 }
  - { offsetInCU: 0xA2AA, offset: 0x7062E, size: 0x8, addend: 0x0, symName: __ZNSt3__122__make_exception_guardB8ue170006INS_6vectorINS_12basic_stringIcNS_11char_traitsIcEENS_9allocatorIcEEEENS5_IS7_EEE16__destroy_vectorEEENS_28__exception_guard_exceptionsIT_EESC_, symObjAddr: 0x4E88, symBinAddr: 0x10005E3A0, symSize: 0x278 }
  - { offsetInCU: 0xA2E3, offset: 0x70667, size: 0x8, addend: 0x0, symName: __ZNSt3__130__uninitialized_allocator_copyB8ue170006INS_9allocatorINS_12basic_stringIcNS_11char_traitsIcEENS1_IcEEEEEEPS6_S8_S8_EET2_RT_T0_T1_S9_, symObjAddr: 0x6DDC, symBinAddr: 0x10005F328, symSize: 0x2DC }
  - { offsetInCU: 0xA389, offset: 0x7070D, size: 0x8, addend: 0x0, symName: __ZNSt3__135__uninitialized_allocator_copy_implB8ue170006INS_9allocatorINS_12basic_stringIcNS_11char_traitsIcEENS1_IcEEEEEEPS6_S8_S8_EET2_RT_T0_T1_S9_, symObjAddr: 0x7718, symBinAddr: 0x10005F604, symSize: 0x534 }
  - { offsetInCU: 0xA4E2, offset: 0x70866, size: 0x8, addend: 0x0, symName: __ZNSt3__122__make_exception_guardB8ue170006INS_29_AllocatorDestroyRangeReverseINS_9allocatorINS_12basic_stringIcNS_11char_traitsIcEENS2_IcEEEEEEPS7_EEEENS_28__exception_guard_exceptionsIT_EESC_, symObjAddr: 0x804C, symBinAddr: 0x10005FB38, symSize: 0x1F8 }
  - { offsetInCU: 0xA519, offset: 0x7089D, size: 0x8, addend: 0x0, symName: __ZNSt3__119__allocator_destroyB8ue170006INS_9allocatorINS_12basic_stringIcNS_11char_traitsIcEENS1_IcEEEEEENS_16reverse_iteratorIPS6_EESA_EEvRT_T0_T1_, symObjAddr: 0x89C4, symBinAddr: 0x1000604B0, symSize: 0x2B8 }
  - { offsetInCU: 0xDA42, offset: 0x73DC6, size: 0x8, addend: 0x0, symName: __ZN6Server11joinCommandEP6ClientRK12ParseMessage, symObjAddr: 0x0, symBinAddr: 0x10005AB3C, symSize: 0x2FE8 }
  - { offsetInCU: 0xDB3F, offset: 0x73EC3, size: 0x8, addend: 0x0, symName: __ZNK12ParseMessage9getParamsEv, symObjAddr: 0x2FE8, symBinAddr: 0x10005DB24, symSize: 0x3C }
  - { offsetInCU: 0xDB65, offset: 0x73EE9, size: 0x8, addend: 0x0, symName: __ZNSt3__111__wrap_iterIPNS_12basic_stringIcNS_11char_traitsIcEENS_9allocatorIcEEEEEC1B8ue170006Ev, symObjAddr: 0x3050, symBinAddr: 0x10005DB60, symSize: 0x2C }
  - { offsetInCU: 0xDBAE, offset: 0x73F32, size: 0x8, addend: 0x0, symName: __ZNSt3__16vectorINS_12basic_stringIcNS_11char_traitsIcEENS_9allocatorIcEEEENS4_IS6_EEEC1ERKS8_, symObjAddr: 0x45F0, symBinAddr: 0x10005DBCC, symSize: 0x34 }
  - { offsetInCU: 0xDBE9, offset: 0x73F6D, size: 0x8, addend: 0x0, symName: __ZNSt3__16vectorINS_12basic_stringIcNS_11char_traitsIcEENS_9allocatorIcEEEENS4_IS6_EEEC2ERKS8_, symObjAddr: 0x4624, symBinAddr: 0x10005DC00, symSize: 0x388 }
  - { offsetInCU: 0xDC30, offset: 0x73FB4, size: 0x8, addend: 0x0, symName: __ZNSt3__116allocator_traitsINS_9allocatorINS_12basic_stringIcNS_11char_traitsIcEENS1_IcEEEEEEE37select_on_container_copy_constructionB8ue170006IS7_vvEES7_RKS7_, symObjAddr: 0x49AC, symBinAddr: 0x10005DF88, symSize: 0x10 }
  - { offsetInCU: 0xDC6B, offset: 0x73FEF, size: 0x8, addend: 0x0, symName: __ZNSt3__117__compressed_pairIPNS_12basic_stringIcNS_11char_traitsIcEENS_9allocatorIcEEEENS4_IS6_EEEC1B8ue170006IDnS8_EEOT_OT0_, symObjAddr: 0x49E4, symBinAddr: 0x10005DF98, symSize: 0x3C }
  - { offsetInCU: 0xDCC3, offset: 0x74047, size: 0x8, addend: 0x0, symName: __ZNSt3__16vectorINS_12basic_stringIcNS_11char_traitsIcEENS_9allocatorIcEEEENS4_IS6_EEE16__init_with_sizeB8ue170006IPS6_SA_EEvT_T0_m, symObjAddr: 0x4A20, symBinAddr: 0x10005DFD4, symSize: 0x370 }
  - { offsetInCU: 0xDD3F, offset: 0x740C3, size: 0x8, addend: 0x0, symName: __ZNSt3__117__compressed_pairIPNS_12basic_stringIcNS_11char_traitsIcEENS_9allocatorIcEEEENS4_IS6_EEEC2B8ue170006IDnS8_EEOT_OT0_, symObjAddr: 0x4DC8, symBinAddr: 0x10005E344, symSize: 0x44 }
  - { offsetInCU: 0xDD97, offset: 0x7411B, size: 0x8, addend: 0x0, symName: __ZNSt3__122__compressed_pair_elemINS_9allocatorINS_12basic_stringIcNS_11char_traitsIcEENS1_IcEEEEEELi1ELb1EEC2B8ue170006IS7_vEEOT_, symObjAddr: 0x4E70, symBinAddr: 0x10005E388, symSize: 0x18 }
  - { offsetInCU: 0xDDD9, offset: 0x7415D, size: 0x8, addend: 0x0, symName: __ZNSt3__16vectorINS_12basic_stringIcNS_11char_traitsIcEENS_9allocatorIcEEEENS4_IS6_EEE11__vallocateB8ue170006Em, symObjAddr: 0x5134, symBinAddr: 0x10005E618, symSize: 0x428 }
  - { offsetInCU: 0xDE22, offset: 0x741A6, size: 0x8, addend: 0x0, symName: __ZNSt3__16vectorINS_12basic_stringIcNS_11char_traitsIcEENS_9allocatorIcEEEENS4_IS6_EEE18__construct_at_endIPS6_SA_EEvT_T0_m, symObjAddr: 0x555C, symBinAddr: 0x10005EA40, symSize: 0x394 }
  - { offsetInCU: 0xDEA1, offset: 0x74225, size: 0x8, addend: 0x0, symName: __ZNSt3__128__exception_guard_exceptionsINS_6vectorINS_12basic_stringIcNS_11char_traitsIcEENS_9allocatorIcEEEENS5_IS7_EEE16__destroy_vectorEE10__completeB8ue170006Ev, symObjAddr: 0x58F0, symBinAddr: 0x10005EDD4, symSize: 0x8C }
  - { offsetInCU: 0xDEC7, offset: 0x7424B, size: 0x8, addend: 0x0, symName: __ZNSt3__128__exception_guard_exceptionsINS_6vectorINS_12basic_stringIcNS_11char_traitsIcEENS_9allocatorIcEEEENS5_IS7_EEE16__destroy_vectorEED1B8ue170006Ev, symObjAddr: 0x597C, symBinAddr: 0x10005EE60, symSize: 0x2C }
  - { offsetInCU: 0xDEF1, offset: 0x74275, size: 0x8, addend: 0x0, symName: __ZNSt3__128__exception_guard_exceptionsINS_6vectorINS_12basic_stringIcNS_11char_traitsIcEENS_9allocatorIcEEEENS5_IS7_EEE16__destroy_vectorEEC1B8ue170006ESA_, symObjAddr: 0x59A8, symBinAddr: 0x10005EE8C, symSize: 0x238 }
  - { offsetInCU: 0xDF2E, offset: 0x742B2, size: 0x8, addend: 0x0, symName: __ZNSt3__128__exception_guard_exceptionsINS_6vectorINS_12basic_stringIcNS_11char_traitsIcEENS_9allocatorIcEEEENS5_IS7_EEE16__destroy_vectorEEC2B8ue170006ESA_, symObjAddr: 0x5BE0, symBinAddr: 0x10005F0C4, symSize: 0x264 }
  - { offsetInCU: 0xDF9E, offset: 0x74322, size: 0x8, addend: 0x0, symName: __ZNSt3__129_AllocatorDestroyRangeReverseINS_9allocatorINS_12basic_stringIcNS_11char_traitsIcEENS1_IcEEEEEEPS6_EC1B8ue170006ERS7_RS8_SB_, symObjAddr: 0x8244, symBinAddr: 0x10005FD30, symSize: 0x44 }
  - { offsetInCU: 0xDFF5, offset: 0x74379, size: 0x8, addend: 0x0, symName: __ZNSt3__116allocator_traitsINS_9allocatorINS_12basic_stringIcNS_11char_traitsIcEENS1_IcEEEEEEE9constructB8ue170006IS6_JRS6_EvEEvRS7_PT_DpOT0_, symObjAddr: 0x8288, symBinAddr: 0x10005FD74, symSize: 0x34 }
  - { offsetInCU: 0xE04C, offset: 0x743D0, size: 0x8, addend: 0x0, symName: __ZNSt3__128__exception_guard_exceptionsINS_29_AllocatorDestroyRangeReverseINS_9allocatorINS_12basic_stringIcNS_11char_traitsIcEENS2_IcEEEEEEPS7_EEE10__completeB8ue170006Ev, symObjAddr: 0x82BC, symBinAddr: 0x10005FDA8, symSize: 0x8C }
  - { offsetInCU: 0xE072, offset: 0x743F6, size: 0x8, addend: 0x0, symName: __ZNSt3__128__exception_guard_exceptionsINS_29_AllocatorDestroyRangeReverseINS_9allocatorINS_12basic_stringIcNS_11char_traitsIcEENS2_IcEEEEEEPS7_EEED1B8ue170006Ev, symObjAddr: 0x8348, symBinAddr: 0x10005FE34, symSize: 0x2C }
  - { offsetInCU: 0xE09C, offset: 0x74420, size: 0x8, addend: 0x0, symName: __ZNSt3__128__exception_guard_exceptionsINS_29_AllocatorDestroyRangeReverseINS_9allocatorINS_12basic_stringIcNS_11char_traitsIcEENS2_IcEEEEEEPS7_EEEC1B8ue170006ESA_, symObjAddr: 0x8374, symBinAddr: 0x10005FE60, symSize: 0x34 }
  - { offsetInCU: 0xE0D5, offset: 0x74459, size: 0x8, addend: 0x0, symName: __ZNSt3__128__exception_guard_exceptionsINS_29_AllocatorDestroyRangeReverseINS_9allocatorINS_12basic_stringIcNS_11char_traitsIcEENS2_IcEEEEEEPS7_EEEC2B8ue170006ESA_, symObjAddr: 0x83A8, symBinAddr: 0x10005FE94, symSize: 0xA4 }
  - { offsetInCU: 0xE10E, offset: 0x74492, size: 0x8, addend: 0x0, symName: __ZNSt3__129_AllocatorDestroyRangeReverseINS_9allocatorINS_12basic_stringIcNS_11char_traitsIcEENS1_IcEEEEEEPS6_EC2B8ue170006ERS7_RS8_SB_, symObjAddr: 0x844C, symBinAddr: 0x10005FF38, symSize: 0x104 }
  - { offsetInCU: 0xE165, offset: 0x744E9, size: 0x8, addend: 0x0, symName: __ZNSt3__19allocatorINS_12basic_stringIcNS_11char_traitsIcEENS0_IcEEEEE9constructB8ue170006IS5_JRS5_EEEvPT_DpOT0_, symObjAddr: 0x8550, symBinAddr: 0x10006003C, symSize: 0x30 }
  - { offsetInCU: 0xE1BB, offset: 0x7453F, size: 0x8, addend: 0x0, symName: __ZNSt3__128__exception_guard_exceptionsINS_29_AllocatorDestroyRangeReverseINS_9allocatorINS_12basic_stringIcNS_11char_traitsIcEENS2_IcEEEEEEPS7_EEED2B8ue170006Ev, symObjAddr: 0x8580, symBinAddr: 0x10006006C, symSize: 0xA8 }
  - { offsetInCU: 0xE1E5, offset: 0x74569, size: 0x8, addend: 0x0, symName: __ZNKSt3__129_AllocatorDestroyRangeReverseINS_9allocatorINS_12basic_stringIcNS_11char_traitsIcEENS1_IcEEEEEEPS6_EclB8ue170006Ev, symObjAddr: 0x8628, symBinAddr: 0x100060114, symSize: 0x39C }
  - { offsetInCU: 0xE20C, offset: 0x74590, size: 0x8, addend: 0x0, symName: __ZNSt3__128__exception_guard_exceptionsINS_6vectorINS_12basic_stringIcNS_11char_traitsIcEENS_9allocatorIcEEEENS5_IS7_EEE16__destroy_vectorEED2B8ue170006Ev, symObjAddr: 0x93D4, symBinAddr: 0x100060768, symSize: 0xA8 }
  - { offsetInCU: 0xE23C, offset: 0x745C0, size: 0x8, addend: 0x0, symName: __ZNSt3__111__wrap_iterIPNS_12basic_stringIcNS_11char_traitsIcEENS_9allocatorIcEEEEEC2B8ue170006Ev, symObjAddr: 0xA0E0, symBinAddr: 0x100060810, symSize: 0x60 }
  - { offsetInCU: 0x3B, offset: 0x7466C, size: 0x8, addend: 0x0, symName: _.str, symObjAddr: 0xF900, symBinAddr: 0x10008AE40, symSize: 0x0 }
  - { offsetInCU: 0x6B, offset: 0x7469C, size: 0x8, addend: 0x0, symName: _.str.1, symObjAddr: 0xF920, symBinAddr: 0x10008AE60, symSize: 0x0 }
  - { offsetInCU: 0x88, offset: 0x746B9, size: 0x8, addend: 0x0, symName: _.str.2, symObjAddr: 0xF960, symBinAddr: 0x10008AEA0, symSize: 0x0 }
  - { offsetInCU: 0x99, offset: 0x746CA, size: 0x8, addend: 0x0, symName: _.str.3, symObjAddr: 0xF980, symBinAddr: 0x10008AEC0, symSize: 0x0 }
  - { offsetInCU: 0xB6, offset: 0x746E7, size: 0x8, addend: 0x0, symName: _.str.4, symObjAddr: 0xF9C0, symBinAddr: 0x10008AF00, symSize: 0x0 }
  - { offsetInCU: 0xC7, offset: 0x746F8, size: 0x8, addend: 0x0, symName: _.str.5, symObjAddr: 0xF9E0, symBinAddr: 0x10008AF20, symSize: 0x0 }
  - { offsetInCU: 0xE4, offset: 0x74715, size: 0x8, addend: 0x0, symName: _.str.6, symObjAddr: 0xFA00, symBinAddr: 0x10008AF40, symSize: 0x0 }
  - { offsetInCU: 0x101, offset: 0x74732, size: 0x8, addend: 0x0, symName: _.str.7, symObjAddr: 0xFA40, symBinAddr: 0x10008AF80, symSize: 0x0 }
  - { offsetInCU: 0x112, offset: 0x74743, size: 0x8, addend: 0x0, symName: _.str.8, symObjAddr: 0xFA60, symBinAddr: 0x10008AFA0, symSize: 0x0 }
  - { offsetInCU: 0x123, offset: 0x74754, size: 0x8, addend: 0x0, symName: _.str.9, symObjAddr: 0xFA80, symBinAddr: 0x10008AFC0, symSize: 0x0 }
  - { offsetInCU: 0x134, offset: 0x74765, size: 0x8, addend: 0x0, symName: _.str.10, symObjAddr: 0xFAC0, symBinAddr: 0x10008B000, symSize: 0x0 }
  - { offsetInCU: 0x151, offset: 0x74782, size: 0x8, addend: 0x0, symName: _.str.11, symObjAddr: 0xFAE0, symBinAddr: 0x10008B020, symSize: 0x0 }
  - { offsetInCU: 0x162, offset: 0x74793, size: 0x8, addend: 0x0, symName: _.str.12, symObjAddr: 0xFB00, symBinAddr: 0x10008B040, symSize: 0x0 }
  - { offsetInCU: 0x180, offset: 0x747B1, size: 0x8, addend: 0x0, symName: _.str.13, symObjAddr: 0xFB40, symBinAddr: 0x10008B080, symSize: 0x0 }
  - { offsetInCU: 0x19E, offset: 0x747CF, size: 0x8, addend: 0x0, symName: _.str.14, symObjAddr: 0xFB60, symBinAddr: 0x10008B0A0, symSize: 0x0 }
  - { offsetInCU: 0xB386, offset: 0x7F9B7, size: 0x8, addend: 0x0, symName: __ZN6Server14privateMessageEP6ClientRK12ParseMessage, symObjAddr: 0x0, symBinAddr: 0x100060908, symSize: 0x1CAC }
  - { offsetInCU: 0xB431, offset: 0x7FA62, size: 0x8, addend: 0x0, symName: __ZNK12ParseMessage11getTrailingEv, symObjAddr: 0x1CE8, symBinAddr: 0x1000625B4, symSize: 0x3C }
  - { offsetInCU: 0x3B, offset: 0x7FAF1, size: 0x8, addend: 0x0, symName: _.str, symObjAddr: 0x142E0, symBinAddr: 0x10008B0C0, symSize: 0x0 }
  - { offsetInCU: 0x6B, offset: 0x7FB21, size: 0x8, addend: 0x0, symName: _.str.1, symObjAddr: 0x14320, symBinAddr: 0x10008B100, symSize: 0x0 }
  - { offsetInCU: 0x88, offset: 0x7FB3E, size: 0x8, addend: 0x0, symName: _.str.2, symObjAddr: 0x14340, symBinAddr: 0x10008B120, symSize: 0x0 }
  - { offsetInCU: 0xA5, offset: 0x7FB5B, size: 0x8, addend: 0x0, symName: _.str.3, symObjAddr: 0x14360, symBinAddr: 0x10008B140, symSize: 0x0 }
  - { offsetInCU: 0xC2, offset: 0x7FB78, size: 0x8, addend: 0x0, symName: _.str.4, symObjAddr: 0x14380, symBinAddr: 0x10008B160, symSize: 0x0 }
  - { offsetInCU: 0xDF, offset: 0x7FB95, size: 0x8, addend: 0x0, symName: _.str.5, symObjAddr: 0x143A0, symBinAddr: 0x10008B180, symSize: 0x0 }
  - { offsetInCU: 0xF0, offset: 0x7FBA6, size: 0x8, addend: 0x0, symName: _.str.6, symObjAddr: 0x143C0, symBinAddr: 0x10008B1A0, symSize: 0x0 }
  - { offsetInCU: 0x101, offset: 0x7FBB7, size: 0x8, addend: 0x0, symName: _.str.7, symObjAddr: 0x143E0, symBinAddr: 0x10008B1C0, symSize: 0x0 }
  - { offsetInCU: 0x11E, offset: 0x7FBD4, size: 0x8, addend: 0x0, symName: _.str.8, symObjAddr: 0x14400, symBinAddr: 0x10008B1E0, symSize: 0x0 }
  - { offsetInCU: 0x13B, offset: 0x7FBF1, size: 0x8, addend: 0x0, symName: _.str.9, symObjAddr: 0x14440, symBinAddr: 0x10008B220, symSize: 0x0 }
  - { offsetInCU: 0x14C, offset: 0x7FC02, size: 0x8, addend: 0x0, symName: _.str.10, symObjAddr: 0x14460, symBinAddr: 0x10008B240, symSize: 0x0 }
  - { offsetInCU: 0x15D, offset: 0x7FC13, size: 0x8, addend: 0x0, symName: _.str.11, symObjAddr: 0x144A0, symBinAddr: 0x10008B280, symSize: 0x0 }
  - { offsetInCU: 0x17A, offset: 0x7FC30, size: 0x8, addend: 0x0, symName: _.str.12, symObjAddr: 0x144C0, symBinAddr: 0x10008B2A0, symSize: 0x0 }
  - { offsetInCU: 0x197, offset: 0x7FC4D, size: 0x8, addend: 0x0, symName: _.str.13, symObjAddr: 0x144E0, symBinAddr: 0x10008B2C0, symSize: 0x0 }
  - { offsetInCU: 0x1B4, offset: 0x7FC6A, size: 0x8, addend: 0x0, symName: _.str.14, symObjAddr: 0x14520, symBinAddr: 0x10008B300, symSize: 0x0 }
  - { offsetInCU: 0x1C5, offset: 0x7FC7B, size: 0x8, addend: 0x0, symName: _.str.15, symObjAddr: 0x14540, symBinAddr: 0x10008B320, symSize: 0x0 }
  - { offsetInCU: 0x1E2, offset: 0x7FC98, size: 0x8, addend: 0x0, symName: _.str.16, symObjAddr: 0x14580, symBinAddr: 0x10008B360, symSize: 0x0 }
  - { offsetInCU: 0x1F3, offset: 0x7FCA9, size: 0x8, addend: 0x0, symName: _.str.17, symObjAddr: 0x145A0, symBinAddr: 0x10008B380, symSize: 0x0 }
  - { offsetInCU: 0x204, offset: 0x7FCBA, size: 0x8, addend: 0x0, symName: _.str.18, symObjAddr: 0x145C0, symBinAddr: 0x10008B3A0, symSize: 0x0 }
  - { offsetInCU: 0x221, offset: 0x7FCD7, size: 0x8, addend: 0x0, symName: _.str.19, symObjAddr: 0x145E0, symBinAddr: 0x10008B3C0, symSize: 0x0 }
  - { offsetInCU: 0x232, offset: 0x7FCE8, size: 0x8, addend: 0x0, symName: _.str.20, symObjAddr: 0x14600, symBinAddr: 0x10008B3E0, symSize: 0x0 }
  - { offsetInCU: 0x24F, offset: 0x7FD05, size: 0x8, addend: 0x0, symName: _.str.21, symObjAddr: 0x14620, symBinAddr: 0x10008B400, symSize: 0x0 }
  - { offsetInCU: 0x260, offset: 0x7FD16, size: 0x8, addend: 0x0, symName: _.str.22, symObjAddr: 0x14640, symBinAddr: 0x10008B420, symSize: 0x0 }
  - { offsetInCU: 0x27D, offset: 0x7FD33, size: 0x8, addend: 0x0, symName: _.str.23, symObjAddr: 0x14660, symBinAddr: 0x10008B440, symSize: 0x0 }
  - { offsetInCU: 0x28E, offset: 0x7FD44, size: 0x8, addend: 0x0, symName: _.str.24, symObjAddr: 0x14680, symBinAddr: 0x10008B460, symSize: 0x0 }
  - { offsetInCU: 0x29F, offset: 0x7FD55, size: 0x8, addend: 0x0, symName: _.str.25, symObjAddr: 0x146A0, symBinAddr: 0x10008B480, symSize: 0x0 }
  - { offsetInCU: 0x2B0, offset: 0x7FD66, size: 0x8, addend: 0x0, symName: _.str.26, symObjAddr: 0x146C0, symBinAddr: 0x10008B4A0, symSize: 0x0 }
  - { offsetInCU: 0x2C1, offset: 0x7FD77, size: 0x8, addend: 0x0, symName: _.str.27, symObjAddr: 0x146E0, symBinAddr: 0x10008B4C0, symSize: 0x0 }
  - { offsetInCU: 0x2D2, offset: 0x7FD88, size: 0x8, addend: 0x0, symName: _.str.28, symObjAddr: 0x14700, symBinAddr: 0x10008B4E0, symSize: 0x0 }
  - { offsetInCU: 0x9633, offset: 0x890E9, size: 0x8, addend: 0x0, symName: __ZN6Server17isValidIRCCommandERKNSt3__112basic_stringIcNS0_11char_traitsIcEENS0_9allocatorIcEEEE, symObjAddr: 0x223C, symBinAddr: 0x100063DBC, symSize: 0x14C }
  - { offsetInCU: 0x9659, offset: 0x8910F, size: 0x8, addend: 0x0, symName: __ZZN6Server17isValidIRCCommandERKNSt3__112basic_stringIcNS0_11char_traitsIcEENS0_9allocatorIcEEEEE13validCommands, symObjAddr: 0x149A0, symBinAddr: 0x1000AC000, symSize: 0x0 }
  - { offsetInCU: 0x96B0, offset: 0x89166, size: 0x8, addend: 0x0, symName: _.str.29, symObjAddr: 0x14720, symBinAddr: 0x10008B500, symSize: 0x0 }
  - { offsetInCU: 0x96C1, offset: 0x89177, size: 0x8, addend: 0x0, symName: _.str.30, symObjAddr: 0x14740, symBinAddr: 0x10008B520, symSize: 0x0 }
  - { offsetInCU: 0x96DE, offset: 0x89194, size: 0x8, addend: 0x0, symName: _.str.31, symObjAddr: 0x14760, symBinAddr: 0x10008B540, symSize: 0x0 }
  - { offsetInCU: 0x96FB, offset: 0x891B1, size: 0x8, addend: 0x0, symName: _.str.32, symObjAddr: 0x14780, symBinAddr: 0x10008B560, symSize: 0x0 }
  - { offsetInCU: 0x970C, offset: 0x891C2, size: 0x8, addend: 0x0, symName: _.str.33, symObjAddr: 0x147A0, symBinAddr: 0x10008B580, symSize: 0x0 }
  - { offsetInCU: 0x971D, offset: 0x891D3, size: 0x8, addend: 0x0, symName: _.str.34, symObjAddr: 0x147C0, symBinAddr: 0x10008B5A0, symSize: 0x0 }
  - { offsetInCU: 0x972E, offset: 0x891E4, size: 0x8, addend: 0x0, symName: _.str.35, symObjAddr: 0x147E0, symBinAddr: 0x10008B5C0, symSize: 0x0 }
  - { offsetInCU: 0x973F, offset: 0x891F5, size: 0x8, addend: 0x0, symName: _.str.36, symObjAddr: 0x14800, symBinAddr: 0x10008B5E0, symSize: 0x0 }
  - { offsetInCU: 0x9750, offset: 0x89206, size: 0x8, addend: 0x0, symName: _.str.37, symObjAddr: 0x14820, symBinAddr: 0x10008B600, symSize: 0x0 }
  - { offsetInCU: 0x976D, offset: 0x89223, size: 0x8, addend: 0x0, symName: _.str.38, symObjAddr: 0x14860, symBinAddr: 0x10008B640, symSize: 0x0 }
  - { offsetInCU: 0x977E, offset: 0x89234, size: 0x8, addend: 0x0, symName: _.str.39, symObjAddr: 0x14880, symBinAddr: 0x10008B660, symSize: 0x0 }
  - { offsetInCU: 0x979B, offset: 0x89251, size: 0x8, addend: 0x0, symName: _.str.40, symObjAddr: 0x148C0, symBinAddr: 0x10008B6A0, symSize: 0x0 }
  - { offsetInCU: 0x97AC, offset: 0x89262, size: 0x8, addend: 0x0, symName: _.str.41, symObjAddr: 0x148E0, symBinAddr: 0x10008B6C0, symSize: 0x0 }
  - { offsetInCU: 0x97BD, offset: 0x89273, size: 0x8, addend: 0x0, symName: _.str.42, symObjAddr: 0x14900, symBinAddr: 0x10008B6E0, symSize: 0x0 }
  - { offsetInCU: 0x97CE, offset: 0x89284, size: 0x8, addend: 0x0, symName: _.str.43, symObjAddr: 0x14920, symBinAddr: 0x10008B700, symSize: 0x0 }
  - { offsetInCU: 0x97DF, offset: 0x89295, size: 0x8, addend: 0x0, symName: _.str.44, symObjAddr: 0x14940, symBinAddr: 0x10008B720, symSize: 0x0 }
  - { offsetInCU: 0x97F1, offset: 0x892A7, size: 0x8, addend: 0x0, symName: _.str.45, symObjAddr: 0x14960, symBinAddr: 0x10008B740, symSize: 0x0 }
  - { offsetInCU: 0x9803, offset: 0x892B9, size: 0x8, addend: 0x0, symName: _.str.46, symObjAddr: 0x14980, symBinAddr: 0x10008B760, symSize: 0x0 }
  - { offsetInCU: 0xB6AE, offset: 0x8B164, size: 0x8, addend: 0x0, symName: __ZN6Server10addNewUserEP6ClientRK12ParseMessage, symObjAddr: 0x0, symBinAddr: 0x100062688, symSize: 0x5EC }
  - { offsetInCU: 0xB6F4, offset: 0x8B1AA, size: 0x8, addend: 0x0, symName: __ZN6Server11connectUserEP6ClientRK12ParseMessage, symObjAddr: 0x948, symBinAddr: 0x100062C74, symSize: 0x524 }
  - { offsetInCU: 0xB75A, offset: 0x8B210, size: 0x8, addend: 0x0, symName: __ZNK12ParseMessage6getCmdEv, symObjAddr: 0xE6C, symBinAddr: 0x100063198, symSize: 0x3C }
  - { offsetInCU: 0xB77F, offset: 0x8B235, size: 0x8, addend: 0x0, symName: __ZN6Server16handleCapCommandEP6ClientRKNSt3__16vectorINS2_12basic_stringIcNS2_11char_traitsIcEENS2_9allocatorIcEEEENS7_IS9_EEEE, symObjAddr: 0xF84, symBinAddr: 0x1000631D4, symSize: 0x440 }
  - { offsetInCU: 0xB7C6, offset: 0x8B27C, size: 0x8, addend: 0x0, symName: __ZN6Server17handlePassCommandEP6ClientRKNSt3__16vectorINS2_12basic_stringIcNS2_11char_traitsIcEENS2_9allocatorIcEEEENS7_IS9_EEEE, symObjAddr: 0x13C4, symBinAddr: 0x100063614, symSize: 0x7A8 }
  - { offsetInCU: 0xB812, offset: 0x8B2C8, size: 0x8, addend: 0x0, symName: __ZNK6Server14displayCommandERK12ParseMessage, symObjAddr: 0x2388, symBinAddr: 0x100063F08, symSize: 0x66C }
  - { offsetInCU: 0xB85F, offset: 0x8B315, size: 0x8, addend: 0x0, symName: __ZN6Server14processCommandEP6ClientRK12ParseMessage, symObjAddr: 0x2AE0, symBinAddr: 0x100064574, symSize: 0x1800 }
  - { offsetInCU: 0x3B, offset: 0x8B3EE, size: 0x8, addend: 0x0, symName: _.str, symObjAddr: 0x1F180, symBinAddr: 0x10008B780, symSize: 0x0 }
  - { offsetInCU: 0x6B, offset: 0x8B41E, size: 0x8, addend: 0x0, symName: _.str.1, symObjAddr: 0x1F1A0, symBinAddr: 0x10008B7A0, symSize: 0x0 }
  - { offsetInCU: 0x88, offset: 0x8B43B, size: 0x8, addend: 0x0, symName: _.str.2, symObjAddr: 0x1F1C0, symBinAddr: 0x10008B7C0, symSize: 0x0 }
  - { offsetInCU: 0xA5, offset: 0x8B458, size: 0x8, addend: 0x0, symName: _.str.3, symObjAddr: 0x1F1E0, symBinAddr: 0x10008B7E0, symSize: 0x0 }
  - { offsetInCU: 0xC2, offset: 0x8B475, size: 0x8, addend: 0x0, symName: _.str.4, symObjAddr: 0x1F200, symBinAddr: 0x10008B800, symSize: 0x0 }
  - { offsetInCU: 0xDF, offset: 0x8B492, size: 0x8, addend: 0x0, symName: _.str.5, symObjAddr: 0x1F260, symBinAddr: 0x10008B860, symSize: 0x0 }
  - { offsetInCU: 0xF0, offset: 0x8B4A3, size: 0x8, addend: 0x0, symName: _.str.6, symObjAddr: 0x1F280, symBinAddr: 0x10008B880, symSize: 0x0 }
  - { offsetInCU: 0x10D, offset: 0x8B4C0, size: 0x8, addend: 0x0, symName: _.str.7, symObjAddr: 0x1F2A0, symBinAddr: 0x10008B8A0, symSize: 0x0 }
  - { offsetInCU: 0x12A, offset: 0x8B4DD, size: 0x8, addend: 0x0, symName: _.str.8, symObjAddr: 0x1F2E0, symBinAddr: 0x10008B8E0, symSize: 0x0 }
  - { offsetInCU: 0x13B, offset: 0x8B4EE, size: 0x8, addend: 0x0, symName: _.str.9, symObjAddr: 0x1F300, symBinAddr: 0x10008B900, symSize: 0x0 }
  - { offsetInCU: 0x158, offset: 0x8B50B, size: 0x8, addend: 0x0, symName: _.str.10, symObjAddr: 0x1F360, symBinAddr: 0x10008B960, symSize: 0x0 }
  - { offsetInCU: 0x175, offset: 0x8B528, size: 0x8, addend: 0x0, symName: _.str.11, symObjAddr: 0x1F380, symBinAddr: 0x10008B980, symSize: 0x0 }
  - { offsetInCU: 0x186, offset: 0x8B539, size: 0x8, addend: 0x0, symName: _.str.12, symObjAddr: 0x1F3A0, symBinAddr: 0x10008B9A0, symSize: 0x0 }
  - { offsetInCU: 0x197, offset: 0x8B54A, size: 0x8, addend: 0x0, symName: _.str.13, symObjAddr: 0x1F3C0, symBinAddr: 0x10008B9C0, symSize: 0x0 }
  - { offsetInCU: 0x1B4, offset: 0x8B567, size: 0x8, addend: 0x0, symName: _.str.14, symObjAddr: 0x1F400, symBinAddr: 0x10008BA00, symSize: 0x0 }
  - { offsetInCU: 0x1D1, offset: 0x8B584, size: 0x8, addend: 0x0, symName: _.str.15, symObjAddr: 0x1F420, symBinAddr: 0x10008BA20, symSize: 0x0 }
  - { offsetInCU: 0x1E2, offset: 0x8B595, size: 0x8, addend: 0x0, symName: _.str.16, symObjAddr: 0x1F440, symBinAddr: 0x10008BA40, symSize: 0x0 }
  - { offsetInCU: 0x1FF, offset: 0x8B5B2, size: 0x8, addend: 0x0, symName: _.str.17, symObjAddr: 0x1F480, symBinAddr: 0x10008BA80, symSize: 0x0 }
  - { offsetInCU: 0x210, offset: 0x8B5C3, size: 0x8, addend: 0x0, symName: _.str.18, symObjAddr: 0x1F4A0, symBinAddr: 0x10008BAA0, symSize: 0x0 }
  - { offsetInCU: 0x221, offset: 0x8B5D4, size: 0x8, addend: 0x0, symName: _.str.19, symObjAddr: 0x1F4C0, symBinAddr: 0x10008BAC0, symSize: 0x0 }
  - { offsetInCU: 0x23E, offset: 0x8B5F1, size: 0x8, addend: 0x0, symName: _.str.20, symObjAddr: 0x1F4E0, symBinAddr: 0x10008BAE0, symSize: 0x0 }
  - { offsetInCU: 0x24F, offset: 0x8B602, size: 0x8, addend: 0x0, symName: _.str.21, symObjAddr: 0x1F500, symBinAddr: 0x10008BB00, symSize: 0x0 }
  - { offsetInCU: 0x260, offset: 0x8B613, size: 0x8, addend: 0x0, symName: _.str.22, symObjAddr: 0x1F520, symBinAddr: 0x10008BB20, symSize: 0x0 }
  - { offsetInCU: 0x27D, offset: 0x8B630, size: 0x8, addend: 0x0, symName: _.str.23, symObjAddr: 0x1F560, symBinAddr: 0x10008BB60, symSize: 0x0 }
  - { offsetInCU: 0x28E, offset: 0x8B641, size: 0x8, addend: 0x0, symName: _.str.24, symObjAddr: 0x1F580, symBinAddr: 0x10008BB80, symSize: 0x0 }
  - { offsetInCU: 0x29F, offset: 0x8B652, size: 0x8, addend: 0x0, symName: _.str.25, symObjAddr: 0x1F5C0, symBinAddr: 0x10008BBC0, symSize: 0x0 }
  - { offsetInCU: 0x2B1, offset: 0x8B664, size: 0x8, addend: 0x0, symName: _.str.26, symObjAddr: 0x1F5E0, symBinAddr: 0x10008BBE0, symSize: 0x0 }
  - { offsetInCU: 0x2C3, offset: 0x8B676, size: 0x8, addend: 0x0, symName: _.str.27, symObjAddr: 0x1F600, symBinAddr: 0x10008BC00, symSize: 0x0 }
  - { offsetInCU: 0x379B, offset: 0x8EB4E, size: 0x8, addend: 0x0, symName: __ZNSt3__17advanceB8ue170006INS_11__wrap_iterIPNS_12basic_stringIcNS_11char_traitsIcEENS_9allocatorIcEEEEEEllvEEvRT_T0_, symObjAddr: 0x179A8, symBinAddr: 0x10006DAB8, symSize: 0x38 }
  - { offsetInCU: 0x89FA, offset: 0x93DAD, size: 0x8, addend: 0x0, symName: __ZNSt3__18distanceB8ue170006INS_11__wrap_iterIPNS_12basic_stringIcNS_11char_traitsIcEENS_9allocatorIcEEEEEEEENS_15iterator_traitsIT_E15difference_typeESB_SB_, symObjAddr: 0x17388, symBinAddr: 0x10006D4E0, symSize: 0x350 }
  - { offsetInCU: 0x8A45, offset: 0x93DF8, size: 0x8, addend: 0x0, symName: __ZNSt3__14nextB8ue170006INS_11__wrap_iterIPNS_12basic_stringIcNS_11char_traitsIcEENS_9allocatorIcEEEEEEEENS_9enable_ifIXsr29__has_input_iterator_categoryIT_EE5valueESB_E4typeESB_NS_15iterator_traitsISB_E15difference_typeE, symObjAddr: 0x17720, symBinAddr: 0x10006D830, symSize: 0x288 }
  - { offsetInCU: 0x8A8D, offset: 0x93E40, size: 0x8, addend: 0x0, symName: __ZNSt3__14copyB8ue170006INS_11__wrap_iterIPNS_12basic_stringIcNS_11char_traitsIcEENS_9allocatorIcEEEEEES8_EET0_T_SB_SA_, symObjAddr: 0x183B0, symBinAddr: 0x10006E4C0, symSize: 0x3F8 }
  - { offsetInCU: 0x8AF0, offset: 0x93EA3, size: 0x8, addend: 0x0, symName: __ZNSt3__19__advanceB8ue170006INS_11__wrap_iterIPNS_12basic_stringIcNS_11char_traitsIcEENS_9allocatorIcEEEEEEEEvRT_NS_15iterator_traitsISA_E15difference_typeENS_26random_access_iterator_tagE, symObjAddr: 0x19380, symBinAddr: 0x10006F3BC, symSize: 0x2C }
  - { offsetInCU: 0x8B3B, offset: 0x93EEE, size: 0x8, addend: 0x0, symName: __ZNSt3__130__uninitialized_allocator_copyB8ue170006INS_9allocatorINS_12basic_stringIcNS_11char_traitsIcEENS1_IcEEEEEENS_11__wrap_iterIPS6_EESA_S9_EET2_RT_T0_T1_SB_, symObjAddr: 0x1942C, symBinAddr: 0x10006F3E8, symSize: 0x498 }
  - { offsetInCU: 0x8BE7, offset: 0x93F9A, size: 0x8, addend: 0x0, symName: __ZNSt3__114__unwrap_rangeB8ue170006INS_11__wrap_iterIPNS_12basic_stringIcNS_11char_traitsIcEENS_9allocatorIcEEEEEES8_EENS_4pairIT0_SB_EET_SD_, symObjAddr: 0x198C4, symBinAddr: 0x10006F880, symSize: 0x4D4 }
  - { offsetInCU: 0x8C3B, offset: 0x93FEE, size: 0x8, addend: 0x0, symName: __ZNSt3__113move_backwardB8ue170006IPNS_12basic_stringIcNS_11char_traitsIcEENS_9allocatorIcEEEES7_EET0_T_S9_S8_, symObjAddr: 0x1A614, symBinAddr: 0x10006FD54, symSize: 0x254 }
  - { offsetInCU: 0x8C98, offset: 0x9404B, size: 0x8, addend: 0x0, symName: __ZNSt3__115__move_backwardB8ue170006INS_17_ClassicAlgPolicyEPNS_12basic_stringIcNS_11char_traitsIcEENS_9allocatorIcEEEES8_S8_EENS_4pairIT0_T2_EESA_T1_SB_, symObjAddr: 0x1A868, symBinAddr: 0x10006FFA8, symSize: 0x22C }
  - { offsetInCU: 0x8D07, offset: 0x940BA, size: 0x8, addend: 0x0, symName: __ZNSt3__123__dispatch_copy_or_moveB8ue170006INS_17_ClassicAlgPolicyENS_20__move_backward_loopIS1_EENS_23__move_backward_trivialEPNS_12basic_stringIcNS_11char_traitsIcEENS_9allocatorIcEEEESB_SB_EENS_4pairIT2_T4_EESD_T3_SE_, symObjAddr: 0x1AA94, symBinAddr: 0x1000701D4, symSize: 0x22C }
  - { offsetInCU: 0x8D88, offset: 0x9413B, size: 0x8, addend: 0x0, symName: __ZNSt3__121__unwrap_and_dispatchB8ue170006INS_10__overloadINS_20__move_backward_loopINS_17_ClassicAlgPolicyEEENS_23__move_backward_trivialEEEPNS_12basic_stringIcNS_11char_traitsIcEENS_9allocatorIcEEEESD_SD_Li0EEENS_4pairIT0_T2_EESF_T1_SG_, symObjAddr: 0x1ACC0, symBinAddr: 0x100070400, symSize: 0x5A4 }
  - { offsetInCU: 0x8EDC, offset: 0x9428F, size: 0x8, addend: 0x0, symName: __ZNSt3__16__copyB8ue170006INS_17_ClassicAlgPolicyENS_11__wrap_iterIPNS_12basic_stringIcNS_11char_traitsIcEENS_9allocatorIcEEEEEESA_S9_EENS_4pairIT0_T2_EESC_T1_SD_, symObjAddr: 0x1B808, symBinAddr: 0x100070EAC, symSize: 0x3E4 }
  - { offsetInCU: 0x8F51, offset: 0x94304, size: 0x8, addend: 0x0, symName: __ZNSt3__123__dispatch_copy_or_moveB8ue170006INS_17_ClassicAlgPolicyENS_11__copy_loopIS1_EENS_14__copy_trivialENS_11__wrap_iterIPNS_12basic_stringIcNS_11char_traitsIcEENS_9allocatorIcEEEEEESD_SC_EENS_4pairIT2_T4_EESF_T3_SG_, symObjAddr: 0x1BBEC, symBinAddr: 0x100071290, symSize: 0x3E4 }
  - { offsetInCU: 0x8FD8, offset: 0x9438B, size: 0x8, addend: 0x0, symName: __ZNSt3__121__unwrap_and_dispatchB8ue170006INS_10__overloadINS_11__copy_loopINS_17_ClassicAlgPolicyEEENS_14__copy_trivialEEENS_11__wrap_iterIPNS_12basic_stringIcNS_11char_traitsIcEENS_9allocatorIcEEEEEESF_SE_Li0EEENS_4pairIT0_T2_EESH_T1_SI_, symObjAddr: 0x1BFD0, symBinAddr: 0x100071674, symSize: 0x768 }
  - { offsetInCU: 0x90CB, offset: 0x9447E, size: 0x8, addend: 0x0, symName: __ZNSt3__19make_pairB8ue170006INS_11__wrap_iterIPNS_12basic_stringIcNS_11char_traitsIcEENS_9allocatorIcEEEEEES8_EENS_4pairINS_18__unwrap_ref_decayIT_E4typeENSB_IT0_E4typeEEEOSC_OSF_, symObjAddr: 0x1CB90, symBinAddr: 0x100072234, symSize: 0x20C }
  - { offsetInCU: 0x911C, offset: 0x944CF, size: 0x8, addend: 0x0, symName: __ZNSt3__114__rewrap_rangeB8ue170006INS_11__wrap_iterIPNS_12basic_stringIcNS_11char_traitsIcEENS_9allocatorIcEEEEEES8_EET_SA_T0_, symObjAddr: 0x1CD9C, symBinAddr: 0x100072440, symSize: 0x324 }
  - { offsetInCU: 0x921A, offset: 0x945CD, size: 0x8, addend: 0x0, symName: __ZNSt3__142__uninitialized_allocator_move_if_noexceptB8ue170006INS_9allocatorINS_12basic_stringIcNS_11char_traitsIcEENS1_IcEEEEEEPS6_S8_S8_EET2_RT_T0_T1_S9_, symObjAddr: 0x1DD94, symBinAddr: 0x100072B44, symSize: 0x534 }
  - { offsetInCU: 0x92C6, offset: 0x94679, size: 0x8, addend: 0x0, symName: __ZNSt3__110__distanceB8ue170006INS_11__wrap_iterIPNS_12basic_stringIcNS_11char_traitsIcEENS_9allocatorIcEEEEEEEENS_15iterator_traitsIT_E15difference_typeESB_SB_NS_26random_access_iterator_tagE, symObjAddr: 0x1E2C8, symBinAddr: 0x100073078, symSize: 0x274 }
  - { offsetInCU: 0x931D, offset: 0x946D0, size: 0x8, addend: 0x0, symName: __ZNSt3__1miB8ue170006IPNS_12basic_stringIcNS_11char_traitsIcEENS_9allocatorIcEEEES7_EENS_11__wrap_iterIT_E15difference_typeERKSA_RKNS8_IT0_EE, symObjAddr: 0x1E53C, symBinAddr: 0x1000732EC, symSize: 0x48 }
  - { offsetInCU: 0x95FB, offset: 0x949AE, size: 0x8, addend: 0x0, symName: __ZNSt3__16vectorINS_12basic_stringIcNS_11char_traitsIcEENS_9allocatorIcEEEENS4_IS6_EEE26__swap_out_circular_bufferERNS_14__split_bufferIS6_RS7_EEPS6_, symObjAddr: 0x18C34, symBinAddr: 0x10006ED44, symSize: 0x678 }
  - { offsetInCU: 0xC653, offset: 0x97A06, size: 0x8, addend: 0x0, symName: __ZN6Server13handleKeyModeEP6ClientR7ChannelbRNSt3__16vectorINS4_12basic_stringIcNS4_11char_traitsIcEENS4_9allocatorIcEEEENS9_ISB_EEEERm, symObjAddr: 0x0, symBinAddr: 0x100065E0C, symSize: 0x157C }
  - { offsetInCU: 0xC704, offset: 0x97AB7, size: 0x8, addend: 0x0, symName: __ZN6Server15handleLimitModeEP6ClientR7ChannelbRNSt3__16vectorINS4_12basic_stringIcNS4_11char_traitsIcEENS4_9allocatorIcEEEENS9_ISB_EEEERm, symObjAddr: 0x23EC, symBinAddr: 0x100067388, symSize: 0xC74 }
  - { offsetInCU: 0xC7AB, offset: 0x97B5E, size: 0x8, addend: 0x0, symName: __ZN6Server18handleOperatorModeEP6ClientR7ChannelbRNSt3__16vectorINS4_12basic_stringIcNS4_11char_traitsIcEENS4_9allocatorIcEEEENS9_ISB_EEEERm, symObjAddr: 0x3084, symBinAddr: 0x100067FFC, symSize: 0xF68 }
  - { offsetInCU: 0xC85C, offset: 0x97C0F, size: 0x8, addend: 0x0, symName: __ZN6Server24processSingleChannelModeEP6ClientR7ChannelcbRNSt3__16vectorINS4_12basic_stringIcNS4_11char_traitsIcEENS4_9allocatorIcEEEENS9_ISB_EEEERm, symObjAddr: 0x3FEC, symBinAddr: 0x100068F64, symSize: 0x6E0 }
  - { offsetInCU: 0xC8DF, offset: 0x97C92, size: 0x8, addend: 0x0, symName: __ZN6Server19processChannelModesEP6ClientR7ChannelRNSt3__16vectorINS4_12basic_stringIcNS4_11char_traitsIcEENS4_9allocatorIcEEEENS9_ISB_EEEE, symObjAddr: 0x4718, symBinAddr: 0x100069690, symSize: 0x1140 }
  - { offsetInCU: 0xC9B8, offset: 0x97D6B, size: 0x8, addend: 0x0, symName: __ZN6Server17handleChannelModeEP6ClientRNSt3__112basic_stringIcNS2_11char_traitsIcEENS2_9allocatorIcEEEERNS2_6vectorIS8_NS6_IS8_EEEE, symObjAddr: 0x5934, symBinAddr: 0x10006A7D0, symSize: 0xCD8 }
  - { offsetInCU: 0xCA30, offset: 0x97DE3, size: 0x8, addend: 0x0, symName: __ZN6Server11modeCommandEP6ClientRK12ParseMessage, symObjAddr: 0x660C, symBinAddr: 0x10006B4A8, symSize: 0xF5C }
  - { offsetInCU: 0xCAB4, offset: 0x97E67, size: 0x8, addend: 0x0, symName: __ZNSt3__16vectorINS_12basic_stringIcNS_11char_traitsIcEENS_9allocatorIcEEEENS4_IS6_EEE6insertINS_11__wrap_iterIPS6_EELi0EEESC_NSA_IPKS6_EET_SG_, symObjAddr: 0x75E0, symBinAddr: 0x10006C404, symSize: 0x54C }
  - { offsetInCU: 0xCB6E, offset: 0x97F21, size: 0x8, addend: 0x0, symName: __ZNSt3__16vectorINS_12basic_stringIcNS_11char_traitsIcEENS_9allocatorIcEEEENS4_IS6_EEE18__insert_with_sizeB8ue170006INS_11__wrap_iterIPS6_EESC_EESC_NSA_IPKS6_EET_T0_l, symObjAddr: 0x167F8, symBinAddr: 0x10006C950, symSize: 0xB90 }
  - { offsetInCU: 0xCCA6, offset: 0x98059, size: 0x8, addend: 0x0, symName: __ZNSt3__16vectorINS_12basic_stringIcNS_11char_traitsIcEENS_9allocatorIcEEEENS4_IS6_EEE18__construct_at_endINS_11__wrap_iterIPS6_EESC_EEvT_T0_m, symObjAddr: 0x179E0, symBinAddr: 0x10006DAF0, symSize: 0x55C }
  - { offsetInCU: 0xCD2A, offset: 0x980DD, size: 0x8, addend: 0x0, symName: __ZNSt3__16vectorINS_12basic_stringIcNS_11char_traitsIcEENS_9allocatorIcEEEENS4_IS6_EEE12__move_rangeEPS6_S9_S9_, symObjAddr: 0x17F3C, symBinAddr: 0x10006E04C, symSize: 0x474 }
  - { offsetInCU: 0xCDF4, offset: 0x981A7, size: 0x8, addend: 0x0, symName: __ZNSt3__114__split_bufferINS_12basic_stringIcNS_11char_traitsIcEENS_9allocatorIcEEEERNS4_IS6_EEE28__construct_at_end_with_sizeINS_11__wrap_iterIPS6_EEEEvT_m, symObjAddr: 0x187A8, symBinAddr: 0x10006E8B8, symSize: 0x48C }
  - { offsetInCU: 0xCE65, offset: 0x98218, size: 0x8, addend: 0x0, symName: __ZNKSt3__120__move_backward_loopINS_17_ClassicAlgPolicyEEclB8ue170006IPNS_12basic_stringIcNS_11char_traitsIcEENS_9allocatorIcEEEESA_SA_EENS_4pairIT_T1_EESC_T0_SD_, symObjAddr: 0x1B264, symBinAddr: 0x1000709A4, symSize: 0x4F0 }
  - { offsetInCU: 0xCEFC, offset: 0x982AF, size: 0x8, addend: 0x0, symName: __ZNSt3__18_IterOpsINS_17_ClassicAlgPolicyEE4nextB8ue170006IPNS_12basic_stringIcNS_11char_traitsIcEENS_9allocatorIcEEEEEET_SB_SB_, symObjAddr: 0x1B780, symBinAddr: 0x100070E94, symSize: 0x18 }
  - { offsetInCU: 0xCF42, offset: 0x982F5, size: 0x8, addend: 0x0, symName: __ZNKSt3__111__copy_loopINS_17_ClassicAlgPolicyEEclB8ue170006IPNS_12basic_stringIcNS_11char_traitsIcEENS_9allocatorIcEEEESA_SA_EENS_4pairIT_T1_EESC_T0_SD_, symObjAddr: 0x1C738, symBinAddr: 0x100071DDC, symSize: 0x458 }
  - { offsetInCU: 0xCFD1, offset: 0x98384, size: 0x8, addend: 0x0, symName: __ZNSt3__14pairINS_11__wrap_iterIPNS_12basic_stringIcNS_11char_traitsIcEENS_9allocatorIcEEEEEES8_EC1B8ue170006ERKS9_RKS8_, symObjAddr: 0x1D0C0, symBinAddr: 0x100072764, symSize: 0x3C }
  - { offsetInCU: 0xD017, offset: 0x983CA, size: 0x8, addend: 0x0, symName: __ZNSt3__14pairINS_11__wrap_iterIPNS_12basic_stringIcNS_11char_traitsIcEENS_9allocatorIcEEEEEES8_EC2B8ue170006ERKS9_RKS8_, symObjAddr: 0x1D0FC, symBinAddr: 0x1000727A0, symSize: 0xD0 }
  - { offsetInCU: 0xD067, offset: 0x9841A, size: 0x8, addend: 0x0, symName: __ZNSt3__114__split_bufferINS_12basic_stringIcNS_11char_traitsIcEENS_9allocatorIcEEEERNS4_IS6_EEE21_ConstructTransactionC1B8ue170006EPPS6_m, symObjAddr: 0x1D9F8, symBinAddr: 0x100072870, symSize: 0x3C }
  - { offsetInCU: 0xD0AD, offset: 0x98460, size: 0x8, addend: 0x0, symName: __ZNSt3__114__split_bufferINS_12basic_stringIcNS_11char_traitsIcEENS_9allocatorIcEEEERNS4_IS6_EEE21_ConstructTransactionD1B8ue170006Ev, symObjAddr: 0x1DAFC, symBinAddr: 0x1000728AC, symSize: 0x2C }
  - { offsetInCU: 0xD0D7, offset: 0x9848A, size: 0x8, addend: 0x0, symName: __ZNSt3__114__split_bufferINS_12basic_stringIcNS_11char_traitsIcEENS_9allocatorIcEEEERNS4_IS6_EEE21_ConstructTransactionC2B8ue170006EPPS6_m, symObjAddr: 0x1DB28, symBinAddr: 0x1000728D8, symSize: 0x18C }
  - { offsetInCU: 0xD11D, offset: 0x984D0, size: 0x8, addend: 0x0, symName: __ZNSt3__114__split_bufferINS_12basic_stringIcNS_11char_traitsIcEENS_9allocatorIcEEEERNS4_IS6_EEE21_ConstructTransactionD2B8ue170006Ev, symObjAddr: 0x1DCB4, symBinAddr: 0x100072A64, symSize: 0xE0 }
  - { offsetInCU: 0x3B, offset: 0x9855E, size: 0x8, addend: 0x0, symName: _.str, symObjAddr: 0x10C80, symBinAddr: 0x10008D300, symSize: 0x0 }
  - { offsetInCU: 0x6B, offset: 0x9858E, size: 0x8, addend: 0x0, symName: _.str.1, symObjAddr: 0x10CC0, symBinAddr: 0x10008BC20, symSize: 0x0 }
  - { offsetInCU: 0x88, offset: 0x985AB, size: 0x8, addend: 0x0, symName: _.str.2, symObjAddr: 0x10CE0, symBinAddr: 0x10008BC40, symSize: 0x0 }
  - { offsetInCU: 0xA5, offset: 0x985C8, size: 0x8, addend: 0x0, symName: _.str.3, symObjAddr: 0x10D00, symBinAddr: 0x10008BC60, symSize: 0x0 }
  - { offsetInCU: 0xC2, offset: 0x985E5, size: 0x8, addend: 0x0, symName: _.str.4, symObjAddr: 0x10D20, symBinAddr: 0x10008BC80, symSize: 0x0 }
  - { offsetInCU: 0xDF, offset: 0x98602, size: 0x8, addend: 0x0, symName: _.str.5, symObjAddr: 0x10D60, symBinAddr: 0x10008BCC0, symSize: 0x0 }
  - { offsetInCU: 0xF0, offset: 0x98613, size: 0x8, addend: 0x0, symName: _.str.6, symObjAddr: 0x10D80, symBinAddr: 0x10008BCE0, symSize: 0x0 }
  - { offsetInCU: 0x10D, offset: 0x98630, size: 0x8, addend: 0x0, symName: _.str.7, symObjAddr: 0x10DC0, symBinAddr: 0x10008BD20, symSize: 0x0 }
  - { offsetInCU: 0x11E, offset: 0x98641, size: 0x8, addend: 0x0, symName: _.str.8, symObjAddr: 0x10DE0, symBinAddr: 0x10008BD40, symSize: 0x0 }
  - { offsetInCU: 0x13B, offset: 0x9865E, size: 0x8, addend: 0x0, symName: _.str.9, symObjAddr: 0x10E40, symBinAddr: 0x10008BDA0, symSize: 0x0 }
  - { offsetInCU: 0x14C, offset: 0x9866F, size: 0x8, addend: 0x0, symName: _.str.10, symObjAddr: 0x10E60, symBinAddr: 0x10008BDC0, symSize: 0x0 }
  - { offsetInCU: 0x169, offset: 0x9868C, size: 0x8, addend: 0x0, symName: _.str.11, symObjAddr: 0x10EA0, symBinAddr: 0x10008BE00, symSize: 0x0 }
  - { offsetInCU: 0x186, offset: 0x986A9, size: 0x8, addend: 0x0, symName: _.str.12, symObjAddr: 0x10EC0, symBinAddr: 0x10008BE20, symSize: 0x0 }
  - { offsetInCU: 0x1A3, offset: 0x986C6, size: 0x8, addend: 0x0, symName: _.str.13, symObjAddr: 0x10F00, symBinAddr: 0x10008BE60, symSize: 0x0 }
  - { offsetInCU: 0x1B4, offset: 0x986D7, size: 0x8, addend: 0x0, symName: _.str.14, symObjAddr: 0x10F20, symBinAddr: 0x10008BE80, symSize: 0x0 }
  - { offsetInCU: 0x1D1, offset: 0x986F4, size: 0x8, addend: 0x0, symName: _.str.15, symObjAddr: 0x10F60, symBinAddr: 0x10008BEC0, symSize: 0x0 }
  - { offsetInCU: 0x1E2, offset: 0x98705, size: 0x8, addend: 0x0, symName: _.str.16, symObjAddr: 0x10F80, symBinAddr: 0x10008BEE0, symSize: 0x0 }
  - { offsetInCU: 0x1F3, offset: 0x98716, size: 0x8, addend: 0x0, symName: _.str.17, symObjAddr: 0x10FA0, symBinAddr: 0x10008BF00, symSize: 0x0 }
  - { offsetInCU: 0x210, offset: 0x98733, size: 0x8, addend: 0x0, symName: _.str.18, symObjAddr: 0x10FC0, symBinAddr: 0x10008BF20, symSize: 0x0 }
  - { offsetInCU: 0x22D, offset: 0x98750, size: 0x8, addend: 0x0, symName: _.str.19, symObjAddr: 0x10FE0, symBinAddr: 0x10008BF40, symSize: 0x0 }
  - { offsetInCU: 0x24A, offset: 0x9876D, size: 0x8, addend: 0x0, symName: _.str.20, symObjAddr: 0x11000, symBinAddr: 0x10008BF60, symSize: 0x0 }
  - { offsetInCU: 0x25B, offset: 0x9877E, size: 0x8, addend: 0x0, symName: _.str.21, symObjAddr: 0x11020, symBinAddr: 0x10008BF80, symSize: 0x0 }
  - { offsetInCU: 0x279, offset: 0x9879C, size: 0x8, addend: 0x0, symName: _.str.22, symObjAddr: 0x11040, symBinAddr: 0x10008BFA0, symSize: 0x0 }
  - { offsetInCU: 0x28B, offset: 0x987AE, size: 0x8, addend: 0x0, symName: _.str.23, symObjAddr: 0x11060, symBinAddr: 0x10008BFC0, symSize: 0x0 }
  - { offsetInCU: 0xB4CF, offset: 0xA39F2, size: 0x8, addend: 0x0, symName: __ZN6Server13inviteCommandEP6ClientRK12ParseMessage, symObjAddr: 0x0, symBinAddr: 0x1000733CC, symSize: 0x25B4 }
  - { offsetInCU: 0x3B, offset: 0xA3B1D, size: 0x8, addend: 0x0, symName: _.str, symObjAddr: 0x16680, symBinAddr: 0x10008BFE0, symSize: 0x0 }
  - { offsetInCU: 0x6B, offset: 0xA3B4D, size: 0x8, addend: 0x0, symName: _.str.1, symObjAddr: 0x166A0, symBinAddr: 0x10008C000, symSize: 0x0 }
  - { offsetInCU: 0x88, offset: 0xA3B6A, size: 0x8, addend: 0x0, symName: _.str.2, symObjAddr: 0x166C0, symBinAddr: 0x10008C020, symSize: 0x0 }
  - { offsetInCU: 0xA5, offset: 0xA3B87, size: 0x8, addend: 0x0, symName: _.str.3, symObjAddr: 0x166E0, symBinAddr: 0x10008C040, symSize: 0x0 }
  - { offsetInCU: 0xC2, offset: 0xA3BA4, size: 0x8, addend: 0x0, symName: _.str.4, symObjAddr: 0x16A40, symBinAddr: 0x10008D340, symSize: 0x0 }
  - { offsetInCU: 0xDF, offset: 0xA3BC1, size: 0x8, addend: 0x0, symName: _.str.5, symObjAddr: 0x16720, symBinAddr: 0x10008C080, symSize: 0x0 }
  - { offsetInCU: 0xF0, offset: 0xA3BD2, size: 0x8, addend: 0x0, symName: _.str.6, symObjAddr: 0x16740, symBinAddr: 0x10008C0A0, symSize: 0x0 }
  - { offsetInCU: 0x10D, offset: 0xA3BEF, size: 0x8, addend: 0x0, symName: _.str.7, symObjAddr: 0x16780, symBinAddr: 0x10008C0E0, symSize: 0x0 }
  - { offsetInCU: 0x11E, offset: 0xA3C00, size: 0x8, addend: 0x0, symName: _.str.8, symObjAddr: 0x167A0, symBinAddr: 0x10008C100, symSize: 0x0 }
  - { offsetInCU: 0x13B, offset: 0xA3C1D, size: 0x8, addend: 0x0, symName: _.str.9, symObjAddr: 0x16800, symBinAddr: 0x10008C160, symSize: 0x0 }
  - { offsetInCU: 0x14C, offset: 0xA3C2E, size: 0x8, addend: 0x0, symName: _.str.10, symObjAddr: 0x16820, symBinAddr: 0x10008C180, symSize: 0x0 }
  - { offsetInCU: 0x169, offset: 0xA3C4B, size: 0x8, addend: 0x0, symName: _.str.11, symObjAddr: 0x16860, symBinAddr: 0x10008C1C0, symSize: 0x0 }
  - { offsetInCU: 0x186, offset: 0xA3C68, size: 0x8, addend: 0x0, symName: _.str.12, symObjAddr: 0x168A0, symBinAddr: 0x10008C200, symSize: 0x0 }
  - { offsetInCU: 0x1A3, offset: 0xA3C85, size: 0x8, addend: 0x0, symName: _.str.13, symObjAddr: 0x168E0, symBinAddr: 0x10008C240, symSize: 0x0 }
  - { offsetInCU: 0x1B4, offset: 0xA3C96, size: 0x8, addend: 0x0, symName: _.str.14, symObjAddr: 0x16900, symBinAddr: 0x10008C260, symSize: 0x0 }
  - { offsetInCU: 0x1C5, offset: 0xA3CA7, size: 0x8, addend: 0x0, symName: _.str.15, symObjAddr: 0x16940, symBinAddr: 0x10008C2A0, symSize: 0x0 }
  - { offsetInCU: 0x1D6, offset: 0xA3CB8, size: 0x8, addend: 0x0, symName: _.str.16, symObjAddr: 0x16960, symBinAddr: 0x10008C2C0, symSize: 0x0 }
  - { offsetInCU: 0x1E7, offset: 0xA3CC9, size: 0x8, addend: 0x0, symName: _.str.17, symObjAddr: 0x16980, symBinAddr: 0x10008C2E0, symSize: 0x0 }
  - { offsetInCU: 0x204, offset: 0xA3CE6, size: 0x8, addend: 0x0, symName: _.str.18, symObjAddr: 0x169A0, symBinAddr: 0x10008C300, symSize: 0x0 }
  - { offsetInCU: 0x221, offset: 0xA3D03, size: 0x8, addend: 0x0, symName: _.str.19, symObjAddr: 0x169C0, symBinAddr: 0x10008C320, symSize: 0x0 }
  - { offsetInCU: 0x23E, offset: 0xA3D20, size: 0x8, addend: 0x0, symName: _.str.20, symObjAddr: 0x169E0, symBinAddr: 0x10008C340, symSize: 0x0 }
  - { offsetInCU: 0x250, offset: 0xA3D32, size: 0x8, addend: 0x0, symName: _.str.21, symObjAddr: 0x16A00, symBinAddr: 0x10008C360, symSize: 0x0 }
  - { offsetInCU: 0x262, offset: 0xA3D44, size: 0x8, addend: 0x0, symName: _.str.22, symObjAddr: 0x16A20, symBinAddr: 0x10008C380, symSize: 0x0 }
  - { offsetInCU: 0xBFD0, offset: 0xAFAB2, size: 0x8, addend: 0x0, symName: __ZN6Server11kickCommandEP6ClientRK12ParseMessage, symObjAddr: 0x0, symBinAddr: 0x100075A18, symSize: 0x23A0 }
  - { offsetInCU: 0xC0CA, offset: 0xAFBAC, size: 0x8, addend: 0x0, symName: __ZNSt3__13mapINS_12basic_stringIcNS_11char_traitsIcEENS_9allocatorIcEEEE7ChannelNS_4lessIS6_EENS4_INS_4pairIKS6_S7_EEEEE5eraseB8ue170006ERSB_, symObjAddr: 0x34AC, symBinAddr: 0x100077DB8, symSize: 0x2C }
  - { offsetInCU: 0xC128, offset: 0xAFC0A, size: 0x8, addend: 0x0, symName: __ZNSt3__16__treeINS_12__value_typeINS_12basic_stringIcNS_11char_traitsIcEENS_9allocatorIcEEEE7ChannelEENS_19__map_value_compareIS7_S9_NS_4lessIS7_EELb1EEENS5_IS9_EEE14__erase_uniqueIS7_EEmRKT_, symObjAddr: 0x10860, symBinAddr: 0x100077DE4, symSize: 0x434 }
  - { offsetInCU: 0xC17D, offset: 0xAFC5F, size: 0x8, addend: 0x0, symName: __ZNSt3__16__treeINS_12__value_typeINS_12basic_stringIcNS_11char_traitsIcEENS_9allocatorIcEEEE7ChannelEENS_19__map_value_compareIS7_S9_NS_4lessIS7_EELb1EEENS5_IS9_EEE5eraseENS_21__tree_const_iteratorIS9_PNS_11__tree_nodeIS9_PvEElEE, symObjAddr: 0x1134C, symBinAddr: 0x100078218, symSize: 0x310 }
  - { offsetInCU: 0xC1ED, offset: 0xAFCCF, size: 0x8, addend: 0x0, symName: __ZNSt3__121__tree_const_iteratorINS_12__value_typeINS_12basic_stringIcNS_11char_traitsIcEENS_9allocatorIcEEEE7ChannelEEPNS_11__tree_nodeIS9_PvEElEC1B8ue170006ENS_15__tree_iteratorIS9_SD_lEE, symObjAddr: 0x1165C, symBinAddr: 0x100078528, symSize: 0x238 }
  - { offsetInCU: 0xC22A, offset: 0xAFD0C, size: 0x8, addend: 0x0, symName: __ZNKSt3__121__tree_const_iteratorINS_12__value_typeINS_12basic_stringIcNS_11char_traitsIcEENS_9allocatorIcEEEE7ChannelEEPNS_11__tree_nodeIS9_PvEElE8__get_npB8ue170006Ev, symObjAddr: 0x12AA4, symBinAddr: 0x100078760, symSize: 0x60 }
  - { offsetInCU: 0xC250, offset: 0xAFD32, size: 0x8, addend: 0x0, symName: __ZNSt3__16__treeINS_12__value_typeINS_12basic_stringIcNS_11char_traitsIcEENS_9allocatorIcEEEE7ChannelEENS_19__map_value_compareIS7_S9_NS_4lessIS7_EELb1EEENS5_IS9_EEE21__remove_node_pointerEPNS_11__tree_nodeIS9_PvEE, symObjAddr: 0x12B04, symBinAddr: 0x1000787C0, symSize: 0x39C }
  - { offsetInCU: 0xC29C, offset: 0xAFD7E, size: 0x8, addend: 0x0, symName: __ZNKSt3__121__tree_const_iteratorINS_12__value_typeINS_12basic_stringIcNS_11char_traitsIcEENS_9allocatorIcEEEE7ChannelEEPNS_11__tree_nodeIS9_PvEElEdeB8ue170006Ev, symObjAddr: 0x12F14, symBinAddr: 0x100078B5C, symSize: 0x28 }
  - { offsetInCU: 0xC2C3, offset: 0xAFDA5, size: 0x8, addend: 0x0, symName: __ZNSt3__121__tree_const_iteratorINS_12__value_typeINS_12basic_stringIcNS_11char_traitsIcEENS_9allocatorIcEEEE7ChannelEEPNS_11__tree_nodeIS9_PvEElEC2B8ue170006ENS_15__tree_iteratorIS9_SD_lEE, symObjAddr: 0x15D00, symBinAddr: 0x100078B84, symSize: 0x270 }
  - { offsetInCU: 0x3B, offset: 0xAFE31, size: 0x8, addend: 0x0, symName: _.str, symObjAddr: 0xF3C0, symBinAddr: 0x10008C3A0, symSize: 0x0 }
  - { offsetInCU: 0x6B, offset: 0xAFE61, size: 0x8, addend: 0x0, symName: _.str.1, symObjAddr: 0xF400, symBinAddr: 0x10008C3E0, symSize: 0x0 }
  - { offsetInCU: 0x88, offset: 0xAFE7E, size: 0x8, addend: 0x0, symName: _.str.2, symObjAddr: 0xF420, symBinAddr: 0x10008C400, symSize: 0x0 }
  - { offsetInCU: 0xA5, offset: 0xAFE9B, size: 0x8, addend: 0x0, symName: _.str.3, symObjAddr: 0xF480, symBinAddr: 0x10008C460, symSize: 0x0 }
  - { offsetInCU: 0xC2, offset: 0xAFEB8, size: 0x8, addend: 0x0, symName: _.str.4, symObjAddr: 0xF4A0, symBinAddr: 0x10008C480, symSize: 0x0 }
  - { offsetInCU: 0xD3, offset: 0xAFEC9, size: 0x8, addend: 0x0, symName: _.str.5, symObjAddr: 0xF4C0, symBinAddr: 0x10008C4A0, symSize: 0x0 }
  - { offsetInCU: 0xF0, offset: 0xAFEE6, size: 0x8, addend: 0x0, symName: _.str.6, symObjAddr: 0xF4E0, symBinAddr: 0x10008C4C0, symSize: 0x0 }
  - { offsetInCU: 0x10D, offset: 0xAFF03, size: 0x8, addend: 0x0, symName: _.str.7, symObjAddr: 0xF500, symBinAddr: 0x10008C4E0, symSize: 0x0 }
  - { offsetInCU: 0x11E, offset: 0xAFF14, size: 0x8, addend: 0x0, symName: _.str.8, symObjAddr: 0xF520, symBinAddr: 0x10008C500, symSize: 0x0 }
  - { offsetInCU: 0x12F, offset: 0xAFF25, size: 0x8, addend: 0x0, symName: _.str.9, symObjAddr: 0xF540, symBinAddr: 0x10008C520, symSize: 0x0 }
  - { offsetInCU: 0x14C, offset: 0xAFF42, size: 0x8, addend: 0x0, symName: _.str.10, symObjAddr: 0xF560, symBinAddr: 0x10008C540, symSize: 0x0 }
  - { offsetInCU: 0x169, offset: 0xAFF5F, size: 0x8, addend: 0x0, symName: _.str.11, symObjAddr: 0xF5A0, symBinAddr: 0x10008C580, symSize: 0x0 }
  - { offsetInCU: 0x17A, offset: 0xAFF70, size: 0x8, addend: 0x0, symName: _.str.12, symObjAddr: 0xF5C0, symBinAddr: 0x10008C5A0, symSize: 0x0 }
  - { offsetInCU: 0x18B, offset: 0xAFF81, size: 0x8, addend: 0x0, symName: _.str.13, symObjAddr: 0xF5E0, symBinAddr: 0x10008C5C0, symSize: 0x0 }
  - { offsetInCU: 0x1A8, offset: 0xAFF9E, size: 0x8, addend: 0x0, symName: _.str.14, symObjAddr: 0xF620, symBinAddr: 0x10008C600, symSize: 0x0 }
  - { offsetInCU: 0x1C5, offset: 0xAFFBB, size: 0x8, addend: 0x0, symName: _.str.15, symObjAddr: 0xF640, symBinAddr: 0x10008C620, symSize: 0x0 }
  - { offsetInCU: 0x1D6, offset: 0xAFFCC, size: 0x8, addend: 0x0, symName: _.str.16, symObjAddr: 0xF660, symBinAddr: 0x10008C640, symSize: 0x0 }
  - { offsetInCU: 0x1E7, offset: 0xAFFDD, size: 0x8, addend: 0x0, symName: _.str.17, symObjAddr: 0xF8E0, symBinAddr: 0x10008D380, symSize: 0x0 }
  - { offsetInCU: 0x204, offset: 0xAFFFA, size: 0x8, addend: 0x0, symName: _.str.18, symObjAddr: 0xF680, symBinAddr: 0x10008C660, symSize: 0x0 }
  - { offsetInCU: 0x215, offset: 0xB000B, size: 0x8, addend: 0x0, symName: _.str.19, symObjAddr: 0xF6A0, symBinAddr: 0x10008C680, symSize: 0x0 }
  - { offsetInCU: 0x232, offset: 0xB0028, size: 0x8, addend: 0x0, symName: _.str.20, symObjAddr: 0xF700, symBinAddr: 0x10008C6E0, symSize: 0x0 }
  - { offsetInCU: 0x243, offset: 0xB0039, size: 0x8, addend: 0x0, symName: _.str.21, symObjAddr: 0xF720, symBinAddr: 0x10008C700, symSize: 0x0 }
  - { offsetInCU: 0x260, offset: 0xB0056, size: 0x8, addend: 0x0, symName: _.str.22, symObjAddr: 0xF740, symBinAddr: 0x10008C720, symSize: 0x0 }
  - { offsetInCU: 0x27D, offset: 0xB0073, size: 0x8, addend: 0x0, symName: _.str.23, symObjAddr: 0xF760, symBinAddr: 0x10008C740, symSize: 0x0 }
  - { offsetInCU: 0x29A, offset: 0xB0090, size: 0x8, addend: 0x0, symName: _.str.24, symObjAddr: 0xF7A0, symBinAddr: 0x10008C780, symSize: 0x0 }
  - { offsetInCU: 0x2AB, offset: 0xB00A1, size: 0x8, addend: 0x0, symName: _.str.25, symObjAddr: 0xF7C0, symBinAddr: 0x10008C7A0, symSize: 0x0 }
  - { offsetInCU: 0x2BC, offset: 0xB00B2, size: 0x8, addend: 0x0, symName: _.str.26, symObjAddr: 0xF7E0, symBinAddr: 0x10008C7C0, symSize: 0x0 }
  - { offsetInCU: 0x2CD, offset: 0xB00C3, size: 0x8, addend: 0x0, symName: _.str.27, symObjAddr: 0xF800, symBinAddr: 0x10008C7E0, symSize: 0x0 }
  - { offsetInCU: 0x2DE, offset: 0xB00D4, size: 0x8, addend: 0x0, symName: _.str.28, symObjAddr: 0xF840, symBinAddr: 0x10008C820, symSize: 0x0 }
  - { offsetInCU: 0x2EF, offset: 0xB00E5, size: 0x8, addend: 0x0, symName: _.str.29, symObjAddr: 0xF860, symBinAddr: 0x10008C840, symSize: 0x0 }
  - { offsetInCU: 0x30D, offset: 0xB0103, size: 0x8, addend: 0x0, symName: _.str.30, symObjAddr: 0xF8A0, symBinAddr: 0x10008C880, symSize: 0x0 }
  - { offsetInCU: 0x32B, offset: 0xB0121, size: 0x8, addend: 0x0, symName: _.str.31, symObjAddr: 0xF8C0, symBinAddr: 0x10008C8A0, symSize: 0x0 }
  - { offsetInCU: 0xA83B, offset: 0xBA631, size: 0x8, addend: 0x0, symName: __ZNSt3__17getlineB8ue170006IcNS_11char_traitsIcEENS_9allocatorIcEEEERNS_13basic_istreamIT_T0_EES9_RNS_12basic_stringIS6_S7_T1_EE, symObjAddr: 0x30B0, symBinAddr: 0x10007B810, symSize: 0xD8 }
  - { offsetInCU: 0xA8A9, offset: 0xBA69F, size: 0x8, addend: 0x0, symName: __ZNSt3__17getlineB8ue170006IcNS_11char_traitsIcEENS_9allocatorIcEEEERNS_13basic_istreamIT_T0_EES9_RNS_12basic_stringIS6_S7_T1_EES6_, symObjAddr: 0xD6F4, symBinAddr: 0x10007C3B8, symSize: 0x688 }
  - { offsetInCU: 0xDC9B, offset: 0xBDA91, size: 0x8, addend: 0x0, symName: __ZN6Server11motdCommandEP6Client, symObjAddr: 0x0, symBinAddr: 0x100078E8C, symSize: 0x25AC }
  - { offsetInCU: 0xDDB9, offset: 0xBDBAF, size: 0x8, addend: 0x0, symName: __ZNSt3__119basic_ostringstreamIcNS_11char_traitsIcEENS_9allocatorIcEEEC1B8ue170006Ev, symObjAddr: 0x25AC, symBinAddr: 0x10007B438, symSize: 0x1D8 }
  - { offsetInCU: 0xDEE2, offset: 0xBDCD8, size: 0x8, addend: 0x0, symName: __ZNSt3__114basic_ifstreamIcNS_11char_traitsIcEEEC1Ev, symObjAddr: 0x27B0, symBinAddr: 0x10007B610, symSize: 0x1D4 }
  - { offsetInCU: 0xDF12, offset: 0xBDD08, size: 0x8, addend: 0x0, symName: __ZNKSt3__114basic_ifstreamIcNS_11char_traitsIcEEE7is_openEv, symObjAddr: 0x3084, symBinAddr: 0x10007B7E4, symSize: 0x2C }
  - { offsetInCU: 0xDF3A, offset: 0xBDD30, size: 0x8, addend: 0x0, symName: __ZNSt3__114basic_ifstreamIcNS_11char_traitsIcEEE5closeEv, symObjAddr: 0x31D4, symBinAddr: 0x10007B8E8, symSize: 0xD4 }
  - { offsetInCU: 0xDF68, offset: 0xBDD5E, size: 0x8, addend: 0x0, symName: __ZNSt3__114basic_ifstreamIcNS_11char_traitsIcEEED1Ev, symObjAddr: 0x32A8, symBinAddr: 0x10007B9BC, symSize: 0x7C }
  - { offsetInCU: 0xDF9A, offset: 0xBDD90, size: 0x8, addend: 0x0, symName: __ZNSt3__119basic_ostringstreamIcNS_11char_traitsIcEENS_9allocatorIcEEED1Ev, symObjAddr: 0x3324, symBinAddr: 0x10007BA38, symSize: 0x7C }
  - { offsetInCU: 0xDFC7, offset: 0xBDDBD, size: 0x8, addend: 0x0, symName: __ZNSt3__114basic_ifstreamIcNS_11char_traitsIcEEED2Ev, symObjAddr: 0x33A0, symBinAddr: 0x10007BAB4, symSize: 0x1DC }
  - { offsetInCU: 0xE001, offset: 0xBDDF7, size: 0x8, addend: 0x0, symName: __ZTv0_n24_NSt3__114basic_ifstreamIcNS_11char_traitsIcEEED1Ev, symObjAddr: 0x357C, symBinAddr: 0x10007BC90, symSize: 0xB0 }
  - { offsetInCU: 0xE018, offset: 0xBDE0E, size: 0x8, addend: 0x0, symName: __ZNSt3__119basic_ostringstreamIcNS_11char_traitsIcEENS_9allocatorIcEEED2Ev, symObjAddr: 0x362C, symBinAddr: 0x10007BD40, symSize: 0x1DC }
  - { offsetInCU: 0xE052, offset: 0xBDE48, size: 0x8, addend: 0x0, symName: __ZTv0_n24_NSt3__119basic_ostringstreamIcNS_11char_traitsIcEENS_9allocatorIcEEED1Ev, symObjAddr: 0x3808, symBinAddr: 0x10007BF1C, symSize: 0xB0 }
  - { offsetInCU: 0xE06E, offset: 0xBDE64, size: 0x8, addend: 0x0, symName: __ZNSt3__113basic_ostreamIcNS_11char_traitsIcEEEC2B8ue170006EPNS_15basic_streambufIcS2_EE, symObjAddr: 0x4474, symBinAddr: 0x10007BFCC, symSize: 0x1D4 }
  - { offsetInCU: 0xE0B3, offset: 0xBDEA9, size: 0x8, addend: 0x0, symName: __ZNSt3__115basic_stringbufIcNS_11char_traitsIcEENS_9allocatorIcEEEC1B8ue170006Ej, symObjAddr: 0x4648, symBinAddr: 0x10007C1A0, symSize: 0x34 }
  - { offsetInCU: 0xE0EC, offset: 0xBDEE2, size: 0x8, addend: 0x0, symName: __ZNSt3__115basic_stringbufIcNS_11char_traitsIcEENS_9allocatorIcEEEC2B8ue170006Ej, symObjAddr: 0x47E4, symBinAddr: 0x10007C1D4, symSize: 0x174 }
  - { offsetInCU: 0xE14D, offset: 0xBDF43, size: 0x8, addend: 0x0, symName: __ZNKSt3__113basic_filebufIcNS_11char_traitsIcEEE7is_openEv, symObjAddr: 0xD684, symBinAddr: 0x10007C348, symSize: 0x70 }
  - { offsetInCU: 0x3B, offset: 0xBDFDD, size: 0x8, addend: 0x0, symName: _.str, symObjAddr: 0xF9C0, symBinAddr: 0x10008D3C0, symSize: 0x0 }
  - { offsetInCU: 0x6B, offset: 0xBE00D, size: 0x8, addend: 0x0, symName: _.str.1, symObjAddr: 0xFA00, symBinAddr: 0x10008C8C0, symSize: 0x0 }
  - { offsetInCU: 0x88, offset: 0xBE02A, size: 0x8, addend: 0x0, symName: _.str.2, symObjAddr: 0xFA20, symBinAddr: 0x10008C8E0, symSize: 0x0 }
  - { offsetInCU: 0x99, offset: 0xBE03B, size: 0x8, addend: 0x0, symName: _.str.3, symObjAddr: 0xFA40, symBinAddr: 0x10008C900, symSize: 0x0 }
  - { offsetInCU: 0xB6, offset: 0xBE058, size: 0x8, addend: 0x0, symName: _.str.4, symObjAddr: 0xFA80, symBinAddr: 0x10008C940, symSize: 0x0 }
  - { offsetInCU: 0xC7, offset: 0xBE069, size: 0x8, addend: 0x0, symName: _.str.5, symObjAddr: 0xFAA0, symBinAddr: 0x10008C960, symSize: 0x0 }
  - { offsetInCU: 0xE5, offset: 0xBE087, size: 0x8, addend: 0x0, symName: _.str.6, symObjAddr: 0xFAC0, symBinAddr: 0x10008C980, symSize: 0x0 }
  - { offsetInCU: 0x103, offset: 0xBE0A5, size: 0x8, addend: 0x0, symName: _.str.7, symObjAddr: 0xFAE0, symBinAddr: 0x10008C9A0, symSize: 0x0 }
  - { offsetInCU: 0x82FE, offset: 0xC62A0, size: 0x8, addend: 0x0, symName: __ZNSt3__1neB8ue170006IPKNS_12basic_stringIcNS_11char_traitsIcEENS_9allocatorIcEEEEPS6_EEbRKNS_11__wrap_iterIT_EERKNSA_IT0_EE, symObjAddr: 0x1ABC, symBinAddr: 0x10007E0E4, symSize: 0x34 }
  - { offsetInCU: 0x834A, offset: 0xC62EC, size: 0x8, addend: 0x0, symName: __ZNSt3__1eqB8ue170006IPKNS_12basic_stringIcNS_11char_traitsIcEENS_9allocatorIcEEEEPS6_EEbRKNS_11__wrap_iterIT_EERKNSA_IT0_EE, symObjAddr: 0x861C, symBinAddr: 0x10007E240, symSize: 0x48 }
  - { offsetInCU: 0xB57E, offset: 0xC9520, size: 0x8, addend: 0x0, symName: __ZN6Server13noticeCommandEP6ClientRK12ParseMessage, symObjAddr: 0x0, symBinAddr: 0x10007CAD8, symSize: 0x15E0 }
  - { offsetInCU: 0xB63C, offset: 0xC95DE, size: 0x8, addend: 0x0, symName: __ZNSt3__111__wrap_iterIPKNS_12basic_stringIcNS_11char_traitsIcEENS_9allocatorIcEEEEEC1B8ue170006Ev, symObjAddr: 0x17EC, symBinAddr: 0x10007E0B8, symSize: 0x2C }
  - { offsetInCU: 0xB66B, offset: 0xC960D, size: 0x8, addend: 0x0, symName: __ZNKSt3__111__wrap_iterIPKNS_12basic_stringIcNS_11char_traitsIcEENS_9allocatorIcEEEEEdeB8ue170006Ev, symObjAddr: 0x1D5C, symBinAddr: 0x10007E118, symSize: 0x60 }
  - { offsetInCU: 0xB691, offset: 0xC9633, size: 0x8, addend: 0x0, symName: __ZNSt3__111__wrap_iterIPKNS_12basic_stringIcNS_11char_traitsIcEENS_9allocatorIcEEEEEppB8ue170006Ev, symObjAddr: 0x24AC, symBinAddr: 0x10007E178, symSize: 0x68 }
  - { offsetInCU: 0xB6DA, offset: 0xC967C, size: 0x8, addend: 0x0, symName: __ZNSt3__111__wrap_iterIPKNS_12basic_stringIcNS_11char_traitsIcEENS_9allocatorIcEEEEEC2B8ue170006Ev, symObjAddr: 0x8238, symBinAddr: 0x10007E1E0, symSize: 0x60 }
  - { offsetInCU: 0x3B, offset: 0xC96F6, size: 0x8, addend: 0x0, symName: _.str, symObjAddr: 0x163E0, symBinAddr: 0x10008D400, symSize: 0x0 }
  - { offsetInCU: 0x6B, offset: 0xC9726, size: 0x8, addend: 0x0, symName: _.str.1, symObjAddr: 0x16420, symBinAddr: 0x10008C9C0, symSize: 0x0 }
  - { offsetInCU: 0x88, offset: 0xC9743, size: 0x8, addend: 0x0, symName: _.str.2, symObjAddr: 0x16440, symBinAddr: 0x10008C9E0, symSize: 0x0 }
  - { offsetInCU: 0xA5, offset: 0xC9760, size: 0x8, addend: 0x0, symName: _.str.3, symObjAddr: 0x16460, symBinAddr: 0x10008CA00, symSize: 0x0 }
  - { offsetInCU: 0xC2, offset: 0xC977D, size: 0x8, addend: 0x0, symName: _.str.4, symObjAddr: 0x16480, symBinAddr: 0x10008CA20, symSize: 0x0 }
  - { offsetInCU: 0xDF, offset: 0xC979A, size: 0x8, addend: 0x0, symName: _.str.5, symObjAddr: 0x164C0, symBinAddr: 0x10008CA60, symSize: 0x0 }
  - { offsetInCU: 0xF0, offset: 0xC97AB, size: 0x8, addend: 0x0, symName: _.str.6, symObjAddr: 0x164E0, symBinAddr: 0x10008CA80, symSize: 0x0 }
  - { offsetInCU: 0x10D, offset: 0xC97C8, size: 0x8, addend: 0x0, symName: _.str.7, symObjAddr: 0x16520, symBinAddr: 0x10008CAC0, symSize: 0x0 }
  - { offsetInCU: 0x11E, offset: 0xC97D9, size: 0x8, addend: 0x0, symName: _.str.8, symObjAddr: 0x16540, symBinAddr: 0x10008CAE0, symSize: 0x0 }
  - { offsetInCU: 0x13B, offset: 0xC97F6, size: 0x8, addend: 0x0, symName: _.str.9, symObjAddr: 0x165A0, symBinAddr: 0x10008CB40, symSize: 0x0 }
  - { offsetInCU: 0x14C, offset: 0xC9807, size: 0x8, addend: 0x0, symName: _.str.10, symObjAddr: 0x165C0, symBinAddr: 0x10008CB60, symSize: 0x0 }
  - { offsetInCU: 0x15D, offset: 0xC9818, size: 0x8, addend: 0x0, symName: _.str.11, symObjAddr: 0x165E0, symBinAddr: 0x10008CB80, symSize: 0x0 }
  - { offsetInCU: 0x17A, offset: 0xC9835, size: 0x8, addend: 0x0, symName: _.str.12, symObjAddr: 0x16600, symBinAddr: 0x10008CBA0, symSize: 0x0 }
  - { offsetInCU: 0x197, offset: 0xC9852, size: 0x8, addend: 0x0, symName: _.str.13, symObjAddr: 0x16620, symBinAddr: 0x10008CBC0, symSize: 0x0 }
  - { offsetInCU: 0x1A8, offset: 0xC9863, size: 0x8, addend: 0x0, symName: _.str.14, symObjAddr: 0x16640, symBinAddr: 0x10008CBE0, symSize: 0x0 }
  - { offsetInCU: 0x1C6, offset: 0xC9881, size: 0x8, addend: 0x0, symName: _.str.15, symObjAddr: 0x16660, symBinAddr: 0x10008CC00, symSize: 0x0 }
  - { offsetInCU: 0x1D8, offset: 0xC9893, size: 0x8, addend: 0x0, symName: _.str.16, symObjAddr: 0x16680, symBinAddr: 0x10008CC20, symSize: 0x0 }
  - { offsetInCU: 0xBF88, offset: 0xD5643, size: 0x8, addend: 0x0, symName: __ZN6Server11partCommandEP6ClientRK12ParseMessage, symObjAddr: 0x0, symBinAddr: 0x10007E320, symSize: 0x1AB4 }
  - { offsetInCU: 0x3B, offset: 0xD57AF, size: 0x8, addend: 0x0, symName: _.str, symObjAddr: 0x108E0, symBinAddr: 0x10008D440, symSize: 0x0 }
  - { offsetInCU: 0x6B, offset: 0xD57DF, size: 0x8, addend: 0x0, symName: _.str.1, symObjAddr: 0x10920, symBinAddr: 0x10008CC40, symSize: 0x0 }
  - { offsetInCU: 0x88, offset: 0xD57FC, size: 0x8, addend: 0x0, symName: _.str.2, symObjAddr: 0x10940, symBinAddr: 0x10008CC60, symSize: 0x0 }
  - { offsetInCU: 0xA5, offset: 0xD5819, size: 0x8, addend: 0x0, symName: _.str.3, symObjAddr: 0x10960, symBinAddr: 0x10008CC80, symSize: 0x0 }
  - { offsetInCU: 0xC2, offset: 0xD5836, size: 0x8, addend: 0x0, symName: _.str.4, symObjAddr: 0x10980, symBinAddr: 0x10008CCA0, symSize: 0x0 }
  - { offsetInCU: 0xDF, offset: 0xD5853, size: 0x8, addend: 0x0, symName: _.str.5, symObjAddr: 0x109C0, symBinAddr: 0x10008CCE0, symSize: 0x0 }
  - { offsetInCU: 0xF0, offset: 0xD5864, size: 0x8, addend: 0x0, symName: _.str.6, symObjAddr: 0x109E0, symBinAddr: 0x10008CD00, symSize: 0x0 }
  - { offsetInCU: 0x10D, offset: 0xD5881, size: 0x8, addend: 0x0, symName: _.str.7, symObjAddr: 0x10A20, symBinAddr: 0x10008CD40, symSize: 0x0 }
  - { offsetInCU: 0x11E, offset: 0xD5892, size: 0x8, addend: 0x0, symName: _.str.8, symObjAddr: 0x10A40, symBinAddr: 0x10008CD60, symSize: 0x0 }
  - { offsetInCU: 0x13B, offset: 0xD58AF, size: 0x8, addend: 0x0, symName: _.str.9, symObjAddr: 0x10AA0, symBinAddr: 0x10008CDC0, symSize: 0x0 }
  - { offsetInCU: 0x14C, offset: 0xD58C0, size: 0x8, addend: 0x0, symName: _.str.10, symObjAddr: 0x10AC0, symBinAddr: 0x10008CDE0, symSize: 0x0 }
  - { offsetInCU: 0x15D, offset: 0xD58D1, size: 0x8, addend: 0x0, symName: _.str.11, symObjAddr: 0x10B00, symBinAddr: 0x10008CE20, symSize: 0x0 }
  - { offsetInCU: 0x16E, offset: 0xD58E2, size: 0x8, addend: 0x0, symName: _.str.12, symObjAddr: 0x10B20, symBinAddr: 0x10008CE40, symSize: 0x0 }
  - { offsetInCU: 0x18B, offset: 0xD58FF, size: 0x8, addend: 0x0, symName: _.str.13, symObjAddr: 0x10B40, symBinAddr: 0x10008CE60, symSize: 0x0 }
  - { offsetInCU: 0x19C, offset: 0xD5910, size: 0x8, addend: 0x0, symName: _.str.14, symObjAddr: 0x10B60, symBinAddr: 0x10008CE80, symSize: 0x0 }
  - { offsetInCU: 0x1B9, offset: 0xD592D, size: 0x8, addend: 0x0, symName: _.str.15, symObjAddr: 0x10BA0, symBinAddr: 0x10008CEC0, symSize: 0x0 }
  - { offsetInCU: 0x1CA, offset: 0xD593E, size: 0x8, addend: 0x0, symName: _.str.16, symObjAddr: 0x10BC0, symBinAddr: 0x10008CEE0, symSize: 0x0 }
  - { offsetInCU: 0x1DB, offset: 0xD594F, size: 0x8, addend: 0x0, symName: _.str.17, symObjAddr: 0x10BE0, symBinAddr: 0x10008CF00, symSize: 0x0 }
  - { offsetInCU: 0x1F8, offset: 0xD596C, size: 0x8, addend: 0x0, symName: _.str.18, symObjAddr: 0x10C00, symBinAddr: 0x10008CF20, symSize: 0x0 }
  - { offsetInCU: 0x216, offset: 0xD598A, size: 0x8, addend: 0x0, symName: _.str.19, symObjAddr: 0x10C20, symBinAddr: 0x10008CF40, symSize: 0x0 }
  - { offsetInCU: 0x234, offset: 0xD59A8, size: 0x8, addend: 0x0, symName: _.str.20, symObjAddr: 0x10C40, symBinAddr: 0x10008CF60, symSize: 0x0 }
  - { offsetInCU: 0xB478, offset: 0xE0BEC, size: 0x8, addend: 0x0, symName: __ZN6Server12topicCommandEP6ClientRK12ParseMessage, symObjAddr: 0x0, symBinAddr: 0x10007FE6C, symSize: 0x2150 }
  - { offsetInCU: 0x3B, offset: 0xE0D08, size: 0x8, addend: 0x0, symName: _.str, symObjAddr: 0x5D20, symBinAddr: 0x10008CF80, symSize: 0x0 }
  - { offsetInCU: 0x6B, offset: 0xE0D38, size: 0x8, addend: 0x0, symName: _.str.1, symObjAddr: 0x5D40, symBinAddr: 0x10008CFA0, symSize: 0x0 }
  - { offsetInCU: 0x88, offset: 0xE0D55, size: 0x8, addend: 0x0, symName: _.str.2, symObjAddr: 0x5D80, symBinAddr: 0x10008CFE0, symSize: 0x0 }
  - { offsetInCU: 0xA5, offset: 0xE0D72, size: 0x8, addend: 0x0, symName: _.str.3, symObjAddr: 0x5DA0, symBinAddr: 0x10008D000, symSize: 0x0 }
  - { offsetInCU: 0xC2, offset: 0xE0D8F, size: 0x8, addend: 0x0, symName: _.str.4, symObjAddr: 0x5DE0, symBinAddr: 0x10008D040, symSize: 0x0 }
  - { offsetInCU: 0xDF, offset: 0xE0DAC, size: 0x8, addend: 0x0, symName: _.str.5, symObjAddr: 0x5E20, symBinAddr: 0x10008D080, symSize: 0x0 }
  - { offsetInCU: 0xFC, offset: 0xE0DC9, size: 0x8, addend: 0x0, symName: _.str.6, symObjAddr: 0x5E60, symBinAddr: 0x10008D0C0, symSize: 0x0 }
  - { offsetInCU: 0x10D, offset: 0xE0DDA, size: 0x8, addend: 0x0, symName: _.str.7, symObjAddr: 0x5EA0, symBinAddr: 0x10008D100, symSize: 0x0 }
  - { offsetInCU: 0xA3A0, offset: 0xEB06D, size: 0x8, addend: 0x0, symName: _main, symObjAddr: 0x0, symBinAddr: 0x100082054, symSize: 0xAC0 }
  - { offsetInCU: 0xAC3F, offset: 0xEB90C, size: 0x8, addend: 0x0, symName: __ZN6Server17setServerPasswordERKNSt3__112basic_stringIcNS0_11char_traitsIcEENS0_9allocatorIcEEEE, symObjAddr: 0xD04, symBinAddr: 0x100082B14, symSize: 0x30 }
  - { offsetInCU: 0xAC73, offset: 0xEB940, size: 0x8, addend: 0x0, symName: __ZN6Server13setServerPortEi, symObjAddr: 0xD34, symBinAddr: 0x100082B44, symSize: 0x9C }
...
